Archive member included because of file (symbol)

contiki-z1.a(er-coap-engine.)
                              coap-server.co (coap_rest_implementation)
contiki-z1.a(er-coap-transac)
                              contiki-z1.a(er-coap-engine.) (coap_register_as_transaction_handler)
contiki-z1.a(er-coap-observe)
                              contiki-z1.a(er-coap-transac) (coap_remove_observer_by_client)
contiki-z1.a(er-coap-res-wel)
                              contiki-z1.a(er-coap-engine.) (res_well_known_core)
contiki-z1.a(rest-engine.o)   coap-server.co (rest_init_engine)
contiki-z1.a(contiki-z1-plat)
                              obj_z1/contiki-z1-main.o (init_platform)
contiki-z1.a(msp430.o)        obj_z1/contiki-z1-main.o (splhigh_)
contiki-z1.a(leds.o)          obj_z1/contiki-z1-main.o (leds_init)
contiki-z1.a(watchdog.o)      obj_z1/contiki-z1-main.o (watchdog_start)
contiki-z1.a(xmem.o)          obj_z1/contiki-z1-main.o (xmem_init)
contiki-z1.a(spi.o)           contiki-z1.a(xmem.o) (spi_init)
contiki-z1.a(cc2420.o)        obj_z1/contiki-z1-main.o (cc2420_set_pan_addr)
contiki-z1.a(cc2420-arch.o)   contiki-z1.a(cc2420.o) (cc2420_arch_init)
contiki-z1.a(node-id.o)       obj_z1/contiki-z1-main.o (node_id_restore)
contiki-z1.a(sensors.o)       contiki-z1.a(contiki-z1-plat) (sensors_process)
contiki-z1.a(button-sensor.o)
                              obj_z1/contiki-z1-main.o (button_sensor)
contiki-z1.a(uart0.o)         obj_z1/contiki-z1-main.o (uart0_active)
contiki-z1.a(uart0-putchar.o)
                              obj_z1/contiki-z1-main.o (putchar)
contiki-z1.a(adxl345.o)       obj_z1/contiki-z1-main.o (accm_init)
contiki-z1.a(clock.o)         obj_z1/contiki-z1-main.o (clock_init)
contiki-z1.a(leds-arch.o)     contiki-z1.a(leds.o) (leds_arch_init)
contiki-z1.a(rtimer-arch.o)   obj_z1/contiki-z1-main.o (rtimer_arch_now)
contiki-z1.a(autostart.o)     obj_z1/contiki-z1-main.o (autostart_start)
contiki-z1.a(ctimer.o)        obj_z1/contiki-z1-main.o (ctimer_init)
contiki-z1.a(energest.o)      obj_z1/contiki-z1-main.o (energest_init)
contiki-z1.a(etimer.o)        contiki-z1.a(clock.o) (etimer_request_poll)
contiki-z1.a(process.o)       contiki-z1.a(er-coap-engine.) (process_current)
contiki-z1.a(rtimer.o)        obj_z1/contiki-z1-main.o (rtimer_init)
contiki-z1.a(timer.o)         contiki-z1.a(button-sensor.o) (timer_set)
contiki-z1.a(list.o)          contiki-z1.a(rest-engine.o) (list_init)
contiki-z1.a(memb.o)          contiki-z1.a(er-coap-transac) (memb_alloc)
contiki-z1.a(random.o)        contiki-z1.a(er-coap-transac) (random_rand)
contiki-z1.a(sicslowpan.o)    obj_z1/contiki-z1-main.o (sicslowpan_driver)
contiki-z1.a(uip6.o)          contiki-z1.a(er-coap-engine.) (uip_aligned_buf)
contiki-z1.a(uip-ds6.o)       contiki-z1.a(uip6.o) (uip_ds6_is_addr_onlink)
contiki-z1.a(uip-ds6-nbr.o)   contiki-z1.a(uip-ds6.o) (uip_ds6_neighbors_init)
contiki-z1.a(uip-ds6-route.o)
                              contiki-z1.a(uip-ds6.o) (uip_ds6_route_init)
contiki-z1.a(uip-icmp6.o)     contiki-z1.a(uip6.o) (uip_icmp6_input)
contiki-z1.a(uip-nd6.o)       contiki-z1.a(uip-ds6-nbr.o) (uip_nd6_ns_output)
contiki-z1.a(tcpip.o)         contiki-z1.a(sicslowpan.o) (tcpip_set_outputfunc)
contiki-z1.a(uip-debug.o)     contiki-z1.a(uip-ds6-route.o) (uip_debug_ipaddr_print)
contiki-z1.a(rpl.o)           contiki-z1.a(uip-ds6-nbr.o) (rpl_link_neighbor_callback)
contiki-z1.a(rpl-dag.o)       contiki-z1.a(rpl.o) (default_instance)
contiki-z1.a(rpl-ext-header.)
                              contiki-z1.a(uip6.o) (rpl_verify_header)
contiki-z1.a(rpl-icmp6.o)     contiki-z1.a(rpl.o) (dao_output_target)
contiki-z1.a(rpl-mrhof.o)     contiki-z1.a(rpl.o) (rpl_mrhof)
contiki-z1.a(rpl-timers.o)    contiki-z1.a(rpl.o) (rpl_reset_periodic_timer)
contiki-z1.a(linkaddr.o)      obj_z1/contiki-z1-main.o (linkaddr_copy)
contiki-z1.a(nbr-table.o)     contiki-z1.a(uip-ds6-nbr.o) (nbr_table_register)
contiki-z1.a(packetbuf.o)     contiki-z1.a(cc2420.o) (packetbuf_set_datalen)
contiki-z1.a(queuebuf.o)      obj_z1/contiki-z1-main.o (queuebuf_init)
contiki-z1.a(framer-802154.o)
                              contiki-z1.a(sicslowpan.o) (framer_802154)
contiki-z1.a(framer.o)        contiki-z1.a(framer-802154.o) (framer_canonical_create_and_secure)
contiki-z1.a(nullmac.o)       obj_z1/contiki-z1-main.o (nullmac_driver)
contiki-z1.a(nullrdc.o)       obj_z1/contiki-z1-main.o (nullrdc_driver)
contiki-z1.a(nullsec.o)       contiki-z1.a(sicslowpan.o) (nullsec_driver)
contiki-z1.a(er-coap.o)       contiki-z1.a(er-coap-engine.) (coap_init_connection)
contiki-z1.a(i2cmaster.o)     contiki-z1.a(adxl345.o) (i2c_receiveinit)
contiki-z1.a(stimer.o)        contiki-z1.a(uip-ds6.o) (stimer_set)
contiki-z1.a(uip-udp-packet.)
                              contiki-z1.a(er-coap.o) (uip_udp_packet_send)
contiki-z1.a(frame802154.o)   contiki-z1.a(framer-802154.o) (frame802154_hdrlen)
contiki-z1.a(mac.o)           contiki-z1.a(nullrdc.o) (mac_call_sent_callback)
/usr/local/msp430/bin/../lib/gcc/msp430/4.7.0/mcpu-430x/mmpy-16/msr20/mc20/libgcc.a(_mulsi3.o)
                              contiki-z1.a(rpl-timers.o) (__mulsi3)
/usr/local/msp430/bin/../lib/gcc/msp430/4.7.0/mcpu-430x/mmpy-16/msr20/mc20/libgcc.a(_udivmod16.o)
                              contiki-z1.a(rpl-dag.o) (__udivhi3)
/usr/local/msp430/bin/../lib/gcc/msp430/4.7.0/mcpu-430x/mmpy-16/msr20/mc20/libgcc.a(_divmod16.o)
                              contiki-z1.a(sicslowpan.o) (__divhi3)
/usr/local/msp430/bin/../lib/gcc/msp430/4.7.0/mcpu-430x/mmpy-16/msr20/mc20/libgcc.a(_udivmod32.o)
                              obj_z1/contiki-z1-main.o (__udivsi3)
/usr/local/msp430/bin/../lib/gcc/msp430/4.7.0/mcpu-430x/mmpy-16/msr20/mc20/libgcc.a(_divmod32.o)
                              contiki-z1.a(er-coap-observe) (__modsi3)
/usr/local/msp430/bin/../lib/gcc/msp430/4.7.0/../../../../msp430/lib/mcpu-430x/mmpy-16/msr20/mc20/libc.a(printf.o)
                              coap-server.co (printf)
/usr/local/msp430/bin/../lib/gcc/msp430/4.7.0/../../../../msp430/lib/mcpu-430x/mmpy-16/msr20/mc20/libc.a(sprintf.o)
                              coap-server.co (sprintf)
/usr/local/msp430/bin/../lib/gcc/msp430/4.7.0/../../../../msp430/lib/mcpu-430x/mmpy-16/msr20/mc20/libc.a(vuprintf.o)
                              /usr/local/msp430/bin/../lib/gcc/msp430/4.7.0/../../../../msp430/lib/mcpu-430x/mmpy-16/msr20/mc20/libc.a(printf.o) (vuprintf)
/usr/local/msp430/bin/../lib/gcc/msp430/4.7.0/../../../../msp430/lib/mcpu-430x/mmpy-16/msr20/mc20/libc.a(puts.o)
                              obj_z1/contiki-z1-main.o (puts)
/usr/local/msp430/bin/../lib/gcc/msp430/4.7.0/../../../../msp430/lib/mcpu-430x/mmpy-16/msr20/mc20/libc.a(rand.o)
                              contiki-z1.a(random.o) (rand)
/usr/local/msp430/bin/../lib/gcc/msp430/4.7.0/../../../../msp430/lib/mcpu-430x/mmpy-16/msr20/mc20/libc.a(strchr.o)
                              contiki-z1.a(er-coap.o) (strchr)
/usr/local/msp430/bin/../lib/gcc/msp430/4.7.0/../../../../msp430/lib/mcpu-430x/mmpy-16/msr20/mc20/libc.a(memchr.o)
                              contiki-z1.a(er-coap.o) (memchr)
/usr/local/msp430/bin/../lib/gcc/msp430/4.7.0/../../../../msp430/lib/mcpu-430x/mmpy-16/msr20/mc20/libc.a(strncmp.o)
                              coap-server.co (strncmp)
/usr/local/msp430/bin/../lib/gcc/msp430/4.7.0/../../../../msp430/lib/mcpu-430x/mmpy-16/msr20/mc20/libc.a(memcmp.o)
                              contiki-z1.a(er-coap-observe) (memcmp)
/usr/local/msp430/bin/../lib/gcc/msp430/4.7.0/../../../../msp430/lib/mcpu-430x/mmpy-16/msr20/mc20/libc.a(memcpy.o)
                              coap-server.co (memcpy)
/usr/local/msp430/bin/../lib/gcc/msp430/4.7.0/../../../../msp430/lib/mcpu-430x/mmpy-16/msr20/mc20/libc.a(memmove.o)
                              contiki-z1.a(sicslowpan.o) (memmove)
/usr/local/msp430/bin/../lib/gcc/msp430/4.7.0/../../../../msp430/lib/mcpu-430x/mmpy-16/msr20/mc20/libc.a(memset.o)
                              obj_z1/contiki-z1-main.o (memset)
/usr/local/msp430/bin/../lib/gcc/msp430/4.7.0/mcpu-430x/mmpy-16/msr20/mc20/libgcc.a(_udivmod64.o)
                              /usr/local/msp430/bin/../lib/gcc/msp430/4.7.0/../../../../msp430/lib/mcpu-430x/mmpy-16/msr20/mc20/libc.a(vuprintf.o) (__udivdi3)
/usr/local/msp430/bin/../lib/gcc/msp430/4.7.0/mcpu-430x/mmpy-16/msr20/mc20/libcrt0.a(_reset_vector__.o)
                              (_reset_vector__)
/usr/local/msp430/bin/../lib/gcc/msp430/4.7.0/mcpu-430x/mmpy-16/msr20/mc20/libcrt0.a(__watchdog_support.o)
                              /usr/local/msp430/bin/../lib/gcc/msp430/4.7.0/mcpu-430x/mmpy-16/msr20/mc20/libcrt0.a(_reset_vector__.o) (__watchdog_support)
/usr/local/msp430/bin/../lib/gcc/msp430/4.7.0/mcpu-430x/mmpy-16/msr20/mc20/libcrt0.a(__init_stack.o)
                              /usr/local/msp430/bin/../lib/gcc/msp430/4.7.0/mcpu-430x/mmpy-16/msr20/mc20/libcrt0.a(_reset_vector__.o) (__init_stack)
/usr/local/msp430/bin/../lib/gcc/msp430/4.7.0/mcpu-430x/mmpy-16/msr20/mc20/libcrt0.a(__low_level_init.o)
                              /usr/local/msp430/bin/../lib/gcc/msp430/4.7.0/mcpu-430x/mmpy-16/msr20/mc20/libcrt0.a(_reset_vector__.o) (__low_level_init)
/usr/local/msp430/bin/../lib/gcc/msp430/4.7.0/mcpu-430x/mmpy-16/msr20/mc20/libcrt0.a(_copy_data.o)
                              /usr/local/msp430/bin/../lib/gcc/msp430/4.7.0/mcpu-430x/mmpy-16/msr20/mc20/libcrt0.a(_reset_vector__.o) (__do_copy_data)
/usr/local/msp430/bin/../lib/gcc/msp430/4.7.0/mcpu-430x/mmpy-16/msr20/mc20/libcrt0.a(_clear_bss.o)
                              /usr/local/msp430/bin/../lib/gcc/msp430/4.7.0/mcpu-430x/mmpy-16/msr20/mc20/libcrt0.a(_reset_vector__.o) (__do_clear_bss)
/usr/local/msp430/bin/../lib/gcc/msp430/4.7.0/mcpu-430x/mmpy-16/msr20/mc20/libcrt0.a(__stop_progExec__.o)
                              /usr/local/msp430/bin/../lib/gcc/msp430/4.7.0/mcpu-430x/mmpy-16/msr20/mc20/libcrt0.a(_reset_vector__.o) (__stop_progExec__)
/usr/local/msp430/bin/../lib/gcc/msp430/4.7.0/mcpu-430x/mmpy-16/msr20/mc20/libcrt0.a(_endless_loop__.o)
                              /usr/local/msp430/bin/../lib/gcc/msp430/4.7.0/mcpu-430x/mmpy-16/msr20/mc20/libcrt0.a(_reset_vector__.o) (_endless_loop__)
/usr/local/msp430/bin/../lib/gcc/msp430/4.7.0/mcpu-430x/mmpy-16/msr20/mc20/libcrt0.a(_unexpected_.o)
                              /usr/local/msp430/bin/../lib/gcc/msp430/4.7.0/mcpu-430x/mmpy-16/msr20/mc20/crt0ivtbl32.o (_unexpected_)

Allocating common symbols
Common symbol       size              file

energest_total_time
                    0x30              contiki-z1.a(energest.o)
uip_ds6_timer_ra    0x8               contiki-z1.a(uip-ds6.o)
cc2420_last_rssi    0x1               contiki-z1.a(cc2420.o)
accm_int2_cb        0x4               contiki-z1.a(adxl345.o)
uip_ds6_if          0xec              contiki-z1.a(uip-ds6.o)
uip_ds6_netif_addr_list_offset
                    0x1               contiki-z1.a(uip-ds6.o)
uip_len             0x2               contiki-z1.a(uip6.o)
energest_total_count
                    0x2               contiki-z1.a(energest.o)
cc2420_sfd_start_time
                    0x2               contiki-z1.a(cc2420.o)
cc2420_time_of_departure
                    0x2               contiki-z1.a(cc2420.o)
cc2420_time_of_arrival
                    0x2               contiki-z1.a(cc2420.o)
uip_ds6_addr_size   0x1               contiki-z1.a(uip-ds6.o)
uip_sappdata        0x2               contiki-z1.a(uip6.o)
energest_current_mode
                    0xc               contiki-z1.a(energest.o)
packetbuf_addrs     0x10              contiki-z1.a(packetbuf.o)
uip_acc32           0x4               contiki-z1.a(uip6.o)
uip_ds6_prefix_list
                    0x5a              contiki-z1.a(uip-ds6.o)
process_maxevents   0x1               contiki-z1.a(process.o)
frag_sender         0x8               contiki-z1.a(sicslowpan.o)
transmit_data1      0x1               contiki-z1.a(i2cmaster.o)
uip_lladdr          0x8               contiki-z1.a(uip6.o)
rx_byte_ctr         0x1               contiki-z1.a(i2cmaster.o)
uip_aligned_buf     0x118             contiki-z1.a(uip6.o)
uip_flags           0x1               contiki-z1.a(uip6.o)
int2_event          0x1               contiki-z1.a(adxl345.o)
uip_ds6_timer_periodic
                    0xc               contiki-z1.a(uip-ds6.o)
tx_buf_ptr          0x2               contiki-z1.a(i2cmaster.o)
tx_byte_ctr         0x1               contiki-z1.a(i2cmaster.o)
uip_next_hdr        0x2               contiki-z1.a(uip6.o)
cc2420_last_correlation
                    0x1               contiki-z1.a(cc2420.o)
linkaddr_node_addr  0x8               contiki-z1.a(linkaddr.o)
default_instance    0x2               contiki-z1.a(rpl-dag.o)
accm_int1_cb        0x4               contiki-z1.a(adxl345.o)
cc2420_authority_level_of_sender
                    0x2               contiki-z1.a(cc2420.o)
uip_udp_conn        0x2               contiki-z1.a(uip6.o)
i                   0x2               contiki-z1.a(i2cmaster.o)
packetbuf_attrs     0x1e              contiki-z1.a(packetbuf.o)
receive_data        0x1               contiki-z1.a(i2cmaster.o)
cc2420_sfd_counter  0x1               contiki-z1.a(cc2420.o)
instance_table      0xe4              contiki-z1.a(rpl-dag.o)
uip_appdata         0x2               contiki-z1.a(uip6.o)
uip_conn            0x2               contiki-z1.a(uip6.o)
tcpip_event         0x1               contiki-z1.a(tcpip.o)
uip_conns           0xb0              contiki-z1.a(uip6.o)
rx_buf              0x2               contiki-z1.a(i2cmaster.o)
node_mac            0x8               contiki-z1.a(node-id.o)
uip_listenports     0x10              contiki-z1.a(uip6.o)
transmit_data2      0x1               contiki-z1.a(i2cmaster.o)
energest_current_time
                    0x18              contiki-z1.a(energest.o)
rx_buf_ptr          0x2               contiki-z1.a(i2cmaster.o)
sensors_flags       0x2               obj_z1/contiki-z1-main.o
int1_event          0x1               contiki-z1.a(adxl345.o)
cc2420_sfd_end_time
                    0x2               contiki-z1.a(cc2420.o)
sensors_event       0x1               contiki-z1.a(sensors.o)
uip_slen            0x2               contiki-z1.a(uip6.o)
uip_udp_conns       0x138             contiki-z1.a(uip6.o)

Discarded input sections

 .data          0x00000000        0x0 /usr/local/msp430/bin/../lib/gcc/msp430/4.7.0/mcpu-430x/mmpy-16/msr20/mc20/crt0ivtbl32.o
 .bss           0x00000000        0x0 /usr/local/msp430/bin/../lib/gcc/msp430/4.7.0/mcpu-430x/mmpy-16/msr20/mc20/crt0ivtbl32.o
 .text.crt0     0x00000000        0x0 /usr/local/msp430/bin/../lib/gcc/msp430/4.7.0/mcpu-430x/mmpy-16/msr20/mc20/crt0ivtbl32.o
 .text          0x00000000        0x0 coap-server.co
 .data          0x00000000        0x0 coap-server.co
 .bss           0x00000000        0x0 coap-server.co
 .text          0x00000000        0x0 obj_z1/contiki-z1-main.o
 .data          0x00000000        0x0 obj_z1/contiki-z1-main.o
 .bss           0x00000000        0x0 obj_z1/contiki-z1-main.o
 .any.text.uip_log
                0x00000000        0x6 obj_z1/contiki-z1-main.o
 .text          0x00000000        0x0 contiki-z1.a(er-coap-engine.)
 .data          0x00000000        0x0 contiki-z1.a(er-coap-engine.)
 .bss           0x00000000        0x0 contiki-z1.a(er-coap-engine.)
 .any.text.coap_blocking_request_callback
                0x00000000        0xe contiki-z1.a(er-coap-engine.)
 .any.text.coap_blocking_request
                0x00000000      0x118 contiki-z1.a(er-coap-engine.)
 .bss.more.4927
                0x00000000        0x1 contiki-z1.a(er-coap-engine.)
 .bss.res_block.4928
                0x00000000        0x4 contiki-z1.a(er-coap-engine.)
 .bss.block_error.4929
                0x00000000        0x1 contiki-z1.a(er-coap-engine.)
 .text          0x00000000        0x0 contiki-z1.a(er-coap-transac)
 .data          0x00000000        0x0 contiki-z1.a(er-coap-transac)
 .bss           0x00000000        0x0 contiki-z1.a(er-coap-transac)
 .text          0x00000000        0x0 contiki-z1.a(er-coap-observe)
 .data          0x00000000        0x0 contiki-z1.a(er-coap-observe)
 .bss           0x00000000        0x0 contiki-z1.a(er-coap-observe)
 .text          0x00000000        0x0 contiki-z1.a(er-coap-res-wel)
 .data          0x00000000        0x0 contiki-z1.a(er-coap-res-wel)
 .bss           0x00000000        0x0 contiki-z1.a(er-coap-res-wel)
 .text          0x00000000        0x0 contiki-z1.a(rest-engine.o)
 .data          0x00000000        0x0 contiki-z1.a(rest-engine.o)
 .bss           0x00000000        0x0 contiki-z1.a(rest-engine.o)
 .text          0x00000000        0x0 contiki-z1.a(contiki-z1-plat)
 .data          0x00000000        0x0 contiki-z1.a(contiki-z1-plat)
 .bss           0x00000000        0x0 contiki-z1.a(contiki-z1-plat)
 .text          0x00000000        0x0 contiki-z1.a(msp430.o)
 .data          0x00000000        0x0 contiki-z1.a(msp430.o)
 .bss           0x00000000        0x0 contiki-z1.a(msp430.o)
 .text          0x00000000        0x0 contiki-z1.a(leds.o)
 .data          0x00000000        0x0 contiki-z1.a(leds.o)
 .bss           0x00000000        0x0 contiki-z1.a(leds.o)
 .any.text.leds_set
                0x00000000        0x6 contiki-z1.a(leds.o)
 .any.text.leds_toggle
                0x00000000        0xa contiki-z1.a(leds.o)
 .any.text.leds_blink
                0x00000000       0x20 contiki-z1.a(leds.o)
 .text          0x00000000        0x0 contiki-z1.a(watchdog.o)
 .data          0x00000000        0x0 contiki-z1.a(watchdog.o)
 .bss           0x00000000        0x0 contiki-z1.a(watchdog.o)
 .any.text.watchdog_reboot
                0x00000000        0x6 contiki-z1.a(watchdog.o)
 .text          0x00000000        0x0 contiki-z1.a(xmem.o)
 .data          0x00000000        0x0 contiki-z1.a(xmem.o)
 .bss           0x00000000        0x0 contiki-z1.a(xmem.o)
 .any.text.write_enable
                0x00000000       0x26 contiki-z1.a(xmem.o)
 .any.text.xmem_pwrite
                0x00000000      0x114 contiki-z1.a(xmem.o)
 .rodata.xmem_erase
                0x00000000       0x2c contiki-z1.a(xmem.o)
 .any.text.xmem_erase
                0x00000000       0xaa contiki-z1.a(xmem.o)
 .text          0x00000000        0x0 contiki-z1.a(spi.o)
 .data          0x00000000        0x0 contiki-z1.a(spi.o)
 .bss           0x00000000        0x0 contiki-z1.a(spi.o)
 .bss.spi_busy  0x00000000        0x1 contiki-z1.a(spi.o)
 .text          0x00000000        0x0 contiki-z1.a(cc2420.o)
 .data          0x00000000        0x0 contiki-z1.a(cc2420.o)
 .bss           0x00000000        0x0 contiki-z1.a(cc2420.o)
 .any.text.set_key
                0x00000000       0x18 contiki-z1.a(cc2420.o)
 .any.text.encrypt
                0x00000000       0x82 contiki-z1.a(cc2420.o)
 .any.text.cc2420_get_channel
                0x00000000        0x6 contiki-z1.a(cc2420.o)
 .rodata.cc2420_aes_128_driver
                0x00000000        0x8 contiki-z1.a(cc2420.o)
 .text          0x00000000        0x0 contiki-z1.a(cc2420-arch.o)
 .data          0x00000000        0x0 contiki-z1.a(cc2420-arch.o)
 .bss           0x00000000        0x0 contiki-z1.a(cc2420-arch.o)
 .text          0x00000000        0x0 contiki-z1.a(node-id.o)
 .data          0x00000000        0x0 contiki-z1.a(node-id.o)
 .bss           0x00000000        0x0 contiki-z1.a(node-id.o)
 .any.text.node_id_burn
                0x00000000       0x4e contiki-z1.a(node-id.o)
 .text          0x00000000        0x0 contiki-z1.a(sensors.o)
 .data          0x00000000        0x0 contiki-z1.a(sensors.o)
 .bss           0x00000000        0x0 contiki-z1.a(sensors.o)
 .any.text.sensors_first
                0x00000000        0x6 contiki-z1.a(sensors.o)
 .any.text.sensors_next
                0x00000000       0x24 contiki-z1.a(sensors.o)
 .any.text.sensors_find
                0x00000000       0x40 contiki-z1.a(sensors.o)
 .text          0x00000000        0x0 contiki-z1.a(button-sensor.o)
 .data          0x00000000        0x0 contiki-z1.a(button-sensor.o)
 .bss           0x00000000        0x0 contiki-z1.a(button-sensor.o)
 .text          0x00000000        0x0 contiki-z1.a(uart0.o)
 .data          0x00000000        0x0 contiki-z1.a(uart0.o)
 .bss           0x00000000        0x0 contiki-z1.a(uart0.o)
 .any.text.uart0_set_input
                0x00000000        0x6 contiki-z1.a(uart0.o)
 .text          0x00000000        0x0 contiki-z1.a(uart0-putchar.o)
 .data          0x00000000        0x0 contiki-z1.a(uart0-putchar.o)
 .bss           0x00000000        0x0 contiki-z1.a(uart0-putchar.o)
 .text          0x00000000        0x0 contiki-z1.a(adxl345.o)
 .data          0x00000000        0x0 contiki-z1.a(adxl345.o)
 .bss           0x00000000        0x0 contiki-z1.a(adxl345.o)
 .any.text.accm_read_stream
                0x00000000       0x52 contiki-z1.a(adxl345.o)
 .any.text.accm_read_axis
                0x00000000       0x26 contiki-z1.a(adxl345.o)
 .any.text.accm_set_grange
                0x00000000       0x24 contiki-z1.a(adxl345.o)
 .any.text.accm_set_irq
                0x00000000       0x2c contiki-z1.a(adxl345.o)
 .text          0x00000000        0x0 contiki-z1.a(clock.o)
 .data          0x00000000        0x0 contiki-z1.a(clock.o)
 .bss           0x00000000        0x0 contiki-z1.a(clock.o)
 .any.text.clock_set
                0x00000000       0x16 contiki-z1.a(clock.o)
 .any.text.clock_fine_max
                0x00000000        0x6 contiki-z1.a(clock.o)
 .any.text.clock_fine
                0x00000000        0xc contiki-z1.a(clock.o)
 .any.text.clock_set_seconds
                0x00000000       0x18 contiki-z1.a(clock.o)
 .any.text.clock_counter
                0x00000000        0xe contiki-z1.a(clock.o)
 .text          0x00000000        0x0 contiki-z1.a(leds-arch.o)
 .data          0x00000000        0x0 contiki-z1.a(leds-arch.o)
 .bss           0x00000000        0x0 contiki-z1.a(leds-arch.o)
 .text          0x00000000        0x0 contiki-z1.a(rtimer-arch.o)
 .data          0x00000000        0x0 contiki-z1.a(rtimer-arch.o)
 .bss           0x00000000        0x0 contiki-z1.a(rtimer-arch.o)
 .text          0x00000000        0x0 contiki-z1.a(autostart.o)
 .data          0x00000000        0x0 contiki-z1.a(autostart.o)
 .bss           0x00000000        0x0 contiki-z1.a(autostart.o)
 .any.text.autostart_exit
                0x00000000       0x14 contiki-z1.a(autostart.o)
 .text          0x00000000        0x0 contiki-z1.a(ctimer.o)
 .data          0x00000000        0x0 contiki-z1.a(ctimer.o)
 .bss           0x00000000        0x0 contiki-z1.a(ctimer.o)
 .any.text.ctimer_restart
                0x00000000       0x2c contiki-z1.a(ctimer.o)
 .any.text.ctimer_expired
                0x00000000       0x30 contiki-z1.a(ctimer.o)
 .text          0x00000000        0x0 contiki-z1.a(energest.o)
 .data          0x00000000        0x0 contiki-z1.a(energest.o)
 .bss           0x00000000        0x0 contiki-z1.a(energest.o)
 .any.text.energest_leveldevice_leveltime
                0x00000000        0x6 contiki-z1.a(energest.o)
 .text          0x00000000        0x0 contiki-z1.a(etimer.o)
 .data          0x00000000        0x0 contiki-z1.a(etimer.o)
 .bss           0x00000000        0x0 contiki-z1.a(etimer.o)
 .any.text.etimer_adjust
                0x00000000       0x1a contiki-z1.a(etimer.o)
 .any.text.etimer_start_time
                0x00000000        0x8 contiki-z1.a(etimer.o)
 .text          0x00000000        0x0 contiki-z1.a(process.o)
 .data          0x00000000        0x0 contiki-z1.a(process.o)
 .bss           0x00000000        0x0 contiki-z1.a(process.o)
 .any.text.process_exit
                0x00000000        0xa contiki-z1.a(process.o)
 .any.text.process_is_running
                0x00000000        0xe contiki-z1.a(process.o)
 .text          0x00000000        0x0 contiki-z1.a(rtimer.o)
 .data          0x00000000        0x0 contiki-z1.a(rtimer.o)
 .bss           0x00000000        0x0 contiki-z1.a(rtimer.o)
 .any.text.rtimer_set
                0x00000000       0x24 contiki-z1.a(rtimer.o)
 .text          0x00000000        0x0 contiki-z1.a(timer.o)
 .data          0x00000000        0x0 contiki-z1.a(timer.o)
 .bss           0x00000000        0x0 contiki-z1.a(timer.o)
 .any.text.timer_remaining
                0x00000000       0x24 contiki-z1.a(timer.o)
 .text          0x00000000        0x0 contiki-z1.a(list.o)
 .data          0x00000000        0x0 contiki-z1.a(list.o)
 .bss           0x00000000        0x0 contiki-z1.a(list.o)
 .any.text.list_copy
                0x00000000        0x6 contiki-z1.a(list.o)
 .any.text.list_chop
                0x00000000       0x1a contiki-z1.a(list.o)
 .any.text.list_pop
                0x00000000        0xe contiki-z1.a(list.o)
 .any.text.list_insert
                0x00000000       0x16 contiki-z1.a(list.o)
 .text          0x00000000        0x0 contiki-z1.a(memb.o)
 .data          0x00000000        0x0 contiki-z1.a(memb.o)
 .bss           0x00000000        0x0 contiki-z1.a(memb.o)
 .text          0x00000000        0x0 contiki-z1.a(random.o)
 .data          0x00000000        0x0 contiki-z1.a(random.o)
 .bss           0x00000000        0x0 contiki-z1.a(random.o)
 .any.text.random_init
                0x00000000        0x6 contiki-z1.a(random.o)
 .text          0x00000000        0x0 contiki-z1.a(sicslowpan.o)
 .data          0x00000000        0x0 contiki-z1.a(sicslowpan.o)
 .bss           0x00000000        0x0 contiki-z1.a(sicslowpan.o)
 .any.text.rime_sniffer_add
                0x00000000        0x6 contiki-z1.a(sicslowpan.o)
 .any.text.rime_sniffer_remove
                0x00000000        0x6 contiki-z1.a(sicslowpan.o)
 .any.text.sicslowpan_get_last_rssi
                0x00000000        0x6 contiki-z1.a(sicslowpan.o)
 .text          0x00000000        0x0 contiki-z1.a(uip6.o)
 .data          0x00000000        0x0 contiki-z1.a(uip6.o)
 .bss           0x00000000        0x0 contiki-z1.a(uip6.o)
 .any.text.uip_chksum
                0x00000000       0x18 contiki-z1.a(uip6.o)
 .any.text.uip_connect
                0x00000000      0x11a contiki-z1.a(uip6.o)
 .any.text.uip_listen
                0x00000000       0x2c contiki-z1.a(uip6.o)
 .any.text.uip_htons
                0x00000000        0xc contiki-z1.a(uip6.o)
 .any.text.uip_send
                0x00000000       0x48 contiki-z1.a(uip6.o)
 .text          0x00000000        0x0 contiki-z1.a(uip-ds6.o)
 .data          0x00000000        0x0 contiki-z1.a(uip-ds6.o)
 .bss           0x00000000        0x0 contiki-z1.a(uip-ds6.o)
 .any.text.uip_ds6_prefix_rm
                0x00000000        0xa contiki-z1.a(uip-ds6.o)
 .any.text.uip_ds6_prefix_lookup
                0x00000000       0x28 contiki-z1.a(uip-ds6.o)
 .any.text.uip_ds6_get_global
                0x00000000       0x3e contiki-z1.a(uip-ds6.o)
 .any.text.uip_ds6_aaddr_add
                0x00000000       0x46 contiki-z1.a(uip-ds6.o)
 .any.text.uip_ds6_aaddr_rm
                0x00000000        0xa contiki-z1.a(uip-ds6.o)
 .any.text.uip_ds6_aaddr_lookup
                0x00000000       0x28 contiki-z1.a(uip-ds6.o)
 .bss.locaaddr  0x00000000        0x2 contiki-z1.a(uip-ds6.o)
 .text          0x00000000        0x0 contiki-z1.a(uip-ds6-nbr.o)
 .data          0x00000000        0x0 contiki-z1.a(uip-ds6-nbr.o)
 .bss           0x00000000        0x0 contiki-z1.a(uip-ds6-nbr.o)
 .any.text.uip_ds6_nbr_get_ipaddr
                0x00000000        0x2 contiki-z1.a(uip-ds6-nbr.o)
 .any.text.uip_ds6_nbr_num
                0x00000000       0x24 contiki-z1.a(uip-ds6-nbr.o)
 .any.text.uip_ds6_get_least_lifetime_neighbor
                0x00000000       0x4e contiki-z1.a(uip-ds6-nbr.o)
 .text          0x00000000        0x0 contiki-z1.a(uip-ds6-route.o)
 .data          0x00000000        0x0 contiki-z1.a(uip-ds6-route.o)
 .bss           0x00000000        0x0 contiki-z1.a(uip-ds6-route.o)
 .any.text.uip_ds6_notification_add
                0x00000000       0x18 contiki-z1.a(uip-ds6-route.o)
 .any.text.uip_ds6_notification_rm
                0x00000000        0xc contiki-z1.a(uip-ds6-route.o)
 .any.text.uip_ds6_route_num_routes
                0x00000000        0x6 contiki-z1.a(uip-ds6-route.o)
 .any.text.uip_ds6_route_rm_by_nexthop
                0x00000000       0x14 contiki-z1.a(uip-ds6-route.o)
 .text          0x00000000        0x0 contiki-z1.a(uip-icmp6.o)
 .data          0x00000000        0x0 contiki-z1.a(uip-icmp6.o)
 .bss           0x00000000        0x0 contiki-z1.a(uip-icmp6.o)
 .any.text.uip_icmp6_echo_reply_callback_add
                0x00000000       0x18 contiki-z1.a(uip-icmp6.o)
 .any.text.uip_icmp6_echo_reply_callback_rm
                0x00000000        0xc contiki-z1.a(uip-icmp6.o)
 .text          0x00000000        0x0 contiki-z1.a(uip-nd6.o)
 .data          0x00000000        0x0 contiki-z1.a(uip-nd6.o)
 .bss           0x00000000        0x0 contiki-z1.a(uip-nd6.o)
 .text          0x00000000        0x0 contiki-z1.a(tcpip.o)
 .data          0x00000000        0x0 contiki-z1.a(tcpip.o)
 .bss           0x00000000        0x0 contiki-z1.a(tcpip.o)
 .any.text.tcp_unlisten
                0x00000000       0x32 contiki-z1.a(tcpip.o)
 .any.text.tcp_listen
                0x00000000       0x3a contiki-z1.a(tcpip.o)
 .any.text.tcp_attach
                0x00000000        0xc contiki-z1.a(tcpip.o)
 .any.text.udp_attach
                0x00000000        0xc contiki-z1.a(tcpip.o)
 .any.text.udp_broadcast_new
                0x00000000       0x46 contiki-z1.a(tcpip.o)
 .any.text.tcpip_poll_udp
                0x00000000        0xe contiki-z1.a(tcpip.o)
 .any.text.tcpip_poll_tcp
                0x00000000        0xe contiki-z1.a(tcpip.o)
 .any.text.tcp_connect
                0x00000000       0x22 contiki-z1.a(tcpip.o)
 .bss.i.4361    0x00000000        0x1 contiki-z1.a(tcpip.o)
 .bss.i.4369    0x00000000        0x1 contiki-z1.a(tcpip.o)
 .text          0x00000000        0x0 contiki-z1.a(uip-debug.o)
 .data          0x00000000        0x0 contiki-z1.a(uip-debug.o)
 .bss           0x00000000        0x0 contiki-z1.a(uip-debug.o)
 .rodata.uip_debug_lladdr_print
                0x00000000       0x14 contiki-z1.a(uip-debug.o)
 .any.text.uip_debug_lladdr_print
                0x00000000       0x3c contiki-z1.a(uip-debug.o)
 .text          0x00000000        0x0 contiki-z1.a(rpl.o)
 .data          0x00000000        0x0 contiki-z1.a(rpl.o)
 .bss           0x00000000        0x0 contiki-z1.a(rpl.o)
 .any.text.rpl_set_mode
                0x00000000       0x3c contiki-z1.a(rpl.o)
 .text          0x00000000        0x0 contiki-z1.a(rpl-dag.o)
 .data          0x00000000        0x0 contiki-z1.a(rpl-dag.o)
 .bss           0x00000000        0x0 contiki-z1.a(rpl-dag.o)
 .rodata.rpl_print_neighbor_list
                0x00000000       0x6a contiki-z1.a(rpl-dag.o)
 .any.text.rpl_print_neighbor_list
                0x00000000       0xea contiki-z1.a(rpl-dag.o)
 .any.text.rpl_get_parent_rank
                0x00000000       0x18 contiki-z1.a(rpl-dag.o)
 .any.text.rpl_get_parent_link_metric
                0x00000000       0x18 contiki-z1.a(rpl-dag.o)
 .any.text.rpl_set_default_instance
                0x00000000        0x6 contiki-z1.a(rpl-dag.o)
 .any.text.rpl_get_default_instance
                0x00000000        0x6 contiki-z1.a(rpl-dag.o)
 .any.text.rpl_free_dag
                0x00000000       0x34 contiki-z1.a(rpl-dag.o)
 .any.text.rpl_free_instance
                0x00000000       0x68 contiki-z1.a(rpl-dag.o)
 .any.text.rpl_set_root
                0x00000000      0x11a contiki-z1.a(rpl-dag.o)
 .text          0x00000000        0x0 contiki-z1.a(rpl-ext-header.)
 .data          0x00000000        0x0 contiki-z1.a(rpl-ext-header.)
 .bss           0x00000000        0x0 contiki-z1.a(rpl-ext-header.)
 .any.text.rpl_remove_header
                0x00000000       0x4c contiki-z1.a(rpl-ext-header.)
 .text          0x00000000        0x0 contiki-z1.a(rpl-icmp6.o)
 .data          0x00000000        0x0 contiki-z1.a(rpl-icmp6.o)
 .bss           0x00000000        0x0 contiki-z1.a(rpl-icmp6.o)
 .text          0x00000000        0x0 contiki-z1.a(rpl-mrhof.o)
 .data          0x00000000        0x0 contiki-z1.a(rpl-mrhof.o)
 .bss           0x00000000        0x0 contiki-z1.a(rpl-mrhof.o)
 .text          0x00000000        0x0 contiki-z1.a(rpl-timers.o)
 .data          0x00000000        0x0 contiki-z1.a(rpl-timers.o)
 .bss           0x00000000        0x0 contiki-z1.a(rpl-timers.o)
 .any.text.rpl_schedule_dao_immediately
                0x00000000        0xa contiki-z1.a(rpl-timers.o)
 .any.text.rpl_cancel_dao
                0x00000000       0x1a contiki-z1.a(rpl-timers.o)
 .text          0x00000000        0x0 contiki-z1.a(linkaddr.o)
 .data          0x00000000        0x0 contiki-z1.a(linkaddr.o)
 .bss           0x00000000        0x0 contiki-z1.a(linkaddr.o)
 .text          0x00000000        0x0 contiki-z1.a(nbr-table.o)
 .data          0x00000000        0x0 contiki-z1.a(nbr-table.o)
 .bss           0x00000000        0x0 contiki-z1.a(nbr-table.o)
 .text          0x00000000        0x0 contiki-z1.a(packetbuf.o)
 .data          0x00000000        0x0 contiki-z1.a(packetbuf.o)
 .bss           0x00000000        0x0 contiki-z1.a(packetbuf.o)
 .any.text.packetbuf_clear_hdr
                0x00000000        0x8 contiki-z1.a(packetbuf.o)
 .any.text.packetbuf_copyto_hdr
                0x00000000       0x1c contiki-z1.a(packetbuf.o)
 .any.text.packetbuf_hdr_remove
                0x00000000        0x6 contiki-z1.a(packetbuf.o)
 .text          0x00000000        0x0 contiki-z1.a(queuebuf.o)
 .data          0x00000000        0x0 contiki-z1.a(queuebuf.o)
 .bss           0x00000000        0x0 contiki-z1.a(queuebuf.o)
 .any.text.queuebuf_update_attr_from_packetbuf
                0x00000000       0x12 contiki-z1.a(queuebuf.o)
 .any.text.queuebuf_update_from_packetbuf
                0x00000000       0x22 contiki-z1.a(queuebuf.o)
 .any.text.queuebuf_dataptr
                0x00000000       0x1c contiki-z1.a(queuebuf.o)
 .any.text.queuebuf_datalen
                0x00000000        0x8 contiki-z1.a(queuebuf.o)
 .any.text.queuebuf_addr
                0x00000000        0xe contiki-z1.a(queuebuf.o)
 .any.text.queuebuf_attr
                0x00000000        0xe contiki-z1.a(queuebuf.o)
 .any.text.queuebuf_debug_print
                0x00000000        0x2 contiki-z1.a(queuebuf.o)
 .text          0x00000000        0x0 contiki-z1.a(framer-802154.o)
 .data          0x00000000        0x0 contiki-z1.a(framer-802154.o)
 .bss           0x00000000        0x0 contiki-z1.a(framer-802154.o)
 .text          0x00000000        0x0 contiki-z1.a(framer.o)
 .data          0x00000000        0x0 contiki-z1.a(framer.o)
 .bss           0x00000000        0x0 contiki-z1.a(framer.o)
 .text          0x00000000        0x0 contiki-z1.a(nullmac.o)
 .data          0x00000000        0x0 contiki-z1.a(nullmac.o)
 .bss           0x00000000        0x0 contiki-z1.a(nullmac.o)
 .text          0x00000000        0x0 contiki-z1.a(nullrdc.o)
 .data          0x00000000        0x0 contiki-z1.a(nullrdc.o)
 .bss           0x00000000        0x0 contiki-z1.a(nullrdc.o)
 .text          0x00000000        0x0 contiki-z1.a(nullsec.o)
 .data          0x00000000        0x0 contiki-z1.a(nullsec.o)
 .bss           0x00000000        0x0 contiki-z1.a(nullsec.o)
 .text          0x00000000        0x0 contiki-z1.a(er-coap.o)
 .data          0x00000000        0x0 contiki-z1.a(er-coap.o)
 .bss           0x00000000        0x0 contiki-z1.a(er-coap.o)
 .any.text.coap_set_header_accept
                0x00000000        0xc contiki-z1.a(er-coap.o)
 .any.text.coap_get_header_etag
                0x00000000       0x1c contiki-z1.a(er-coap.o)
 .any.text.coap_set_header_if_match
                0x00000000       0x28 contiki-z1.a(er-coap.o)
 .any.text.coap_set_header_if_none_match
                0x00000000        0xa contiki-z1.a(er-coap.o)
 .any.text.coap_get_header_proxy_uri
                0x00000000       0x16 contiki-z1.a(er-coap.o)
 .any.text.coap_set_header_proxy_uri
                0x00000000       0x1e contiki-z1.a(er-coap.o)
 .any.text.coap_set_header_uri_host
                0x00000000       0x1e contiki-z1.a(er-coap.o)
 .any.text.coap_set_header_uri_path
                0x00000000       0x2a contiki-z1.a(er-coap.o)
 .any.text.coap_set_header_uri_query
                0x00000000       0x2c contiki-z1.a(er-coap.o)
 .any.text.coap_get_header_location_path
                0x00000000       0x16 contiki-z1.a(er-coap.o)
 .any.text.coap_get_header_location_query
                0x00000000       0x18 contiki-z1.a(er-coap.o)
 .any.text.coap_get_header_observe
                0x00000000       0x1c contiki-z1.a(er-coap.o)
 .any.text.coap_get_header_block1
                0x00000000       0x4e contiki-z1.a(er-coap.o)
 .any.text.coap_set_header_block1
                0x00000000       0x38 contiki-z1.a(er-coap.o)
 .any.text.coap_get_header_size1
                0x00000000       0x1c contiki-z1.a(er-coap.o)
 .any.text.coap_set_header_size1
                0x00000000       0x12 contiki-z1.a(er-coap.o)
 .text          0x00000000        0x0 contiki-z1.a(i2cmaster.o)
 .data          0x00000000        0x0 contiki-z1.a(i2cmaster.o)
 .bss           0x00000000        0x0 contiki-z1.a(i2cmaster.o)
 .any.text.i2c_setrate
                0x00000000        0x6 contiki-z1.a(i2cmaster.o)
 .any.text.i2c_disable
                0x00000000       0x1a contiki-z1.a(i2cmaster.o)
 .text          0x00000000        0x0 contiki-z1.a(stimer.o)
 .data          0x00000000        0x0 contiki-z1.a(stimer.o)
 .bss           0x00000000        0x0 contiki-z1.a(stimer.o)
 .any.text.stimer_reset
                0x00000000        0xe contiki-z1.a(stimer.o)
 .any.text.stimer_restart
                0x00000000       0x14 contiki-z1.a(stimer.o)
 .any.text.stimer_remaining
                0x00000000       0x24 contiki-z1.a(stimer.o)
 .any.text.stimer_elapsed
                0x00000000       0x12 contiki-z1.a(stimer.o)
 .text          0x00000000        0x0 contiki-z1.a(uip-udp-packet.)
 .data          0x00000000        0x0 contiki-z1.a(uip-udp-packet.)
 .bss           0x00000000        0x0 contiki-z1.a(uip-udp-packet.)
 .any.text.uip_udp_packet_sendto
                0x00000000       0x56 contiki-z1.a(uip-udp-packet.)
 .text          0x00000000        0x0 contiki-z1.a(frame802154.o)
 .data          0x00000000        0x0 contiki-z1.a(frame802154.o)
 .bss           0x00000000        0x0 contiki-z1.a(frame802154.o)
 .text          0x00000000        0x0 contiki-z1.a(mac.o)
 .data          0x00000000        0x0 contiki-z1.a(mac.o)
 .bss           0x00000000        0x0 contiki-z1.a(mac.o)
 .text          0x00000000        0x0 /usr/local/msp430/bin/../lib/gcc/msp430/4.7.0/mcpu-430x/mmpy-16/msr20/mc20/libgcc.a(_mulsi3.o)
 .data          0x00000000        0x0 /usr/local/msp430/bin/../lib/gcc/msp430/4.7.0/mcpu-430x/mmpy-16/msr20/mc20/libgcc.a(_mulsi3.o)
 .bss           0x00000000        0x0 /usr/local/msp430/bin/../lib/gcc/msp430/4.7.0/mcpu-430x/mmpy-16/msr20/mc20/libgcc.a(_mulsi3.o)
 .text          0x00000000        0x0 /usr/local/msp430/bin/../lib/gcc/msp430/4.7.0/mcpu-430x/mmpy-16/msr20/mc20/libgcc.a(_udivmod16.o)
 .data          0x00000000        0x0 /usr/local/msp430/bin/../lib/gcc/msp430/4.7.0/mcpu-430x/mmpy-16/msr20/mc20/libgcc.a(_udivmod16.o)
 .bss           0x00000000        0x0 /usr/local/msp430/bin/../lib/gcc/msp430/4.7.0/mcpu-430x/mmpy-16/msr20/mc20/libgcc.a(_udivmod16.o)
 .text          0x00000000        0x0 /usr/local/msp430/bin/../lib/gcc/msp430/4.7.0/mcpu-430x/mmpy-16/msr20/mc20/libgcc.a(_divmod16.o)
 .data          0x00000000        0x0 /usr/local/msp430/bin/../lib/gcc/msp430/4.7.0/mcpu-430x/mmpy-16/msr20/mc20/libgcc.a(_divmod16.o)
 .bss           0x00000000        0x0 /usr/local/msp430/bin/../lib/gcc/msp430/4.7.0/mcpu-430x/mmpy-16/msr20/mc20/libgcc.a(_divmod16.o)
 .text          0x00000000        0x0 /usr/local/msp430/bin/../lib/gcc/msp430/4.7.0/mcpu-430x/mmpy-16/msr20/mc20/libgcc.a(_udivmod32.o)
 .data          0x00000000        0x0 /usr/local/msp430/bin/../lib/gcc/msp430/4.7.0/mcpu-430x/mmpy-16/msr20/mc20/libgcc.a(_udivmod32.o)
 .bss           0x00000000        0x0 /usr/local/msp430/bin/../lib/gcc/msp430/4.7.0/mcpu-430x/mmpy-16/msr20/mc20/libgcc.a(_udivmod32.o)
 .text          0x00000000        0x0 /usr/local/msp430/bin/../lib/gcc/msp430/4.7.0/mcpu-430x/mmpy-16/msr20/mc20/libgcc.a(_divmod32.o)
 .data          0x00000000        0x0 /usr/local/msp430/bin/../lib/gcc/msp430/4.7.0/mcpu-430x/mmpy-16/msr20/mc20/libgcc.a(_divmod32.o)
 .bss           0x00000000        0x0 /usr/local/msp430/bin/../lib/gcc/msp430/4.7.0/mcpu-430x/mmpy-16/msr20/mc20/libgcc.a(_divmod32.o)
 .text          0x00000000        0x0 /usr/local/msp430/bin/../lib/gcc/msp430/4.7.0/../../../../msp430/lib/mcpu-430x/mmpy-16/msr20/mc20/libc.a(printf.o)
 .data          0x00000000        0x0 /usr/local/msp430/bin/../lib/gcc/msp430/4.7.0/../../../../msp430/lib/mcpu-430x/mmpy-16/msr20/mc20/libc.a(printf.o)
 .bss           0x00000000        0x0 /usr/local/msp430/bin/../lib/gcc/msp430/4.7.0/../../../../msp430/lib/mcpu-430x/mmpy-16/msr20/mc20/libc.a(printf.o)
 .text.vprintf  0x00000000        0xe /usr/local/msp430/bin/../lib/gcc/msp430/4.7.0/../../../../msp430/lib/mcpu-430x/mmpy-16/msr20/mc20/libc.a(printf.o)
 .text          0x00000000        0x0 /usr/local/msp430/bin/../lib/gcc/msp430/4.7.0/../../../../msp430/lib/mcpu-430x/mmpy-16/msr20/mc20/libc.a(sprintf.o)
 .data          0x00000000        0x0 /usr/local/msp430/bin/../lib/gcc/msp430/4.7.0/../../../../msp430/lib/mcpu-430x/mmpy-16/msr20/mc20/libc.a(sprintf.o)
 .bss           0x00000000        0x0 /usr/local/msp430/bin/../lib/gcc/msp430/4.7.0/../../../../msp430/lib/mcpu-430x/mmpy-16/msr20/mc20/libc.a(sprintf.o)
 .text.vsprintf
                0x00000000       0x16 /usr/local/msp430/bin/../lib/gcc/msp430/4.7.0/../../../../msp430/lib/mcpu-430x/mmpy-16/msr20/mc20/libc.a(sprintf.o)
 .text.vsnprintf
                0x00000000       0x12 /usr/local/msp430/bin/../lib/gcc/msp430/4.7.0/../../../../msp430/lib/mcpu-430x/mmpy-16/msr20/mc20/libc.a(sprintf.o)
 .text          0x00000000        0x0 /usr/local/msp430/bin/../lib/gcc/msp430/4.7.0/../../../../msp430/lib/mcpu-430x/mmpy-16/msr20/mc20/libc.a(vuprintf.o)
 .data          0x00000000        0x0 /usr/local/msp430/bin/../lib/gcc/msp430/4.7.0/../../../../msp430/lib/mcpu-430x/mmpy-16/msr20/mc20/libc.a(vuprintf.o)
 .bss           0x00000000        0x0 /usr/local/msp430/bin/../lib/gcc/msp430/4.7.0/../../../../msp430/lib/mcpu-430x/mmpy-16/msr20/mc20/libc.a(vuprintf.o)
 .text          0x00000000        0x0 /usr/local/msp430/bin/../lib/gcc/msp430/4.7.0/../../../../msp430/lib/mcpu-430x/mmpy-16/msr20/mc20/libc.a(puts.o)
 .data          0x00000000        0x0 /usr/local/msp430/bin/../lib/gcc/msp430/4.7.0/../../../../msp430/lib/mcpu-430x/mmpy-16/msr20/mc20/libc.a(puts.o)
 .bss           0x00000000        0x0 /usr/local/msp430/bin/../lib/gcc/msp430/4.7.0/../../../../msp430/lib/mcpu-430x/mmpy-16/msr20/mc20/libc.a(puts.o)
 .text          0x00000000        0x0 /usr/local/msp430/bin/../lib/gcc/msp430/4.7.0/../../../../msp430/lib/mcpu-430x/mmpy-16/msr20/mc20/libc.a(rand.o)
 .data          0x00000000        0x0 /usr/local/msp430/bin/../lib/gcc/msp430/4.7.0/../../../../msp430/lib/mcpu-430x/mmpy-16/msr20/mc20/libc.a(rand.o)
 .bss           0x00000000        0x0 /usr/local/msp430/bin/../lib/gcc/msp430/4.7.0/../../../../msp430/lib/mcpu-430x/mmpy-16/msr20/mc20/libc.a(rand.o)
 .text.rand_r   0x00000000       0x24 /usr/local/msp430/bin/../lib/gcc/msp430/4.7.0/../../../../msp430/lib/mcpu-430x/mmpy-16/msr20/mc20/libc.a(rand.o)
 .text.srand    0x00000000        0xa /usr/local/msp430/bin/../lib/gcc/msp430/4.7.0/../../../../msp430/lib/mcpu-430x/mmpy-16/msr20/mc20/libc.a(rand.o)
 .text          0x00000000        0x0 /usr/local/msp430/bin/../lib/gcc/msp430/4.7.0/../../../../msp430/lib/mcpu-430x/mmpy-16/msr20/mc20/libc.a(strchr.o)
 .data          0x00000000        0x0 /usr/local/msp430/bin/../lib/gcc/msp430/4.7.0/../../../../msp430/lib/mcpu-430x/mmpy-16/msr20/mc20/libc.a(strchr.o)
 .bss           0x00000000        0x0 /usr/local/msp430/bin/../lib/gcc/msp430/4.7.0/../../../../msp430/lib/mcpu-430x/mmpy-16/msr20/mc20/libc.a(strchr.o)
 .text          0x00000000        0x0 /usr/local/msp430/bin/../lib/gcc/msp430/4.7.0/../../../../msp430/lib/mcpu-430x/mmpy-16/msr20/mc20/libc.a(memchr.o)
 .data          0x00000000        0x0 /usr/local/msp430/bin/../lib/gcc/msp430/4.7.0/../../../../msp430/lib/mcpu-430x/mmpy-16/msr20/mc20/libc.a(memchr.o)
 .bss           0x00000000        0x0 /usr/local/msp430/bin/../lib/gcc/msp430/4.7.0/../../../../msp430/lib/mcpu-430x/mmpy-16/msr20/mc20/libc.a(memchr.o)
 .text          0x00000000        0x0 /usr/local/msp430/bin/../lib/gcc/msp430/4.7.0/../../../../msp430/lib/mcpu-430x/mmpy-16/msr20/mc20/libc.a(strncmp.o)
 .data          0x00000000        0x0 /usr/local/msp430/bin/../lib/gcc/msp430/4.7.0/../../../../msp430/lib/mcpu-430x/mmpy-16/msr20/mc20/libc.a(strncmp.o)
 .bss           0x00000000        0x0 /usr/local/msp430/bin/../lib/gcc/msp430/4.7.0/../../../../msp430/lib/mcpu-430x/mmpy-16/msr20/mc20/libc.a(strncmp.o)
 .text          0x00000000        0x0 /usr/local/msp430/bin/../lib/gcc/msp430/4.7.0/../../../../msp430/lib/mcpu-430x/mmpy-16/msr20/mc20/libc.a(memcmp.o)
 .data          0x00000000        0x0 /usr/local/msp430/bin/../lib/gcc/msp430/4.7.0/../../../../msp430/lib/mcpu-430x/mmpy-16/msr20/mc20/libc.a(memcmp.o)
 .bss           0x00000000        0x0 /usr/local/msp430/bin/../lib/gcc/msp430/4.7.0/../../../../msp430/lib/mcpu-430x/mmpy-16/msr20/mc20/libc.a(memcmp.o)
 .text          0x00000000        0x0 /usr/local/msp430/bin/../lib/gcc/msp430/4.7.0/../../../../msp430/lib/mcpu-430x/mmpy-16/msr20/mc20/libc.a(memcpy.o)
 .data          0x00000000        0x0 /usr/local/msp430/bin/../lib/gcc/msp430/4.7.0/../../../../msp430/lib/mcpu-430x/mmpy-16/msr20/mc20/libc.a(memcpy.o)
 .bss           0x00000000        0x0 /usr/local/msp430/bin/../lib/gcc/msp430/4.7.0/../../../../msp430/lib/mcpu-430x/mmpy-16/msr20/mc20/libc.a(memcpy.o)
 .text          0x00000000        0x0 /usr/local/msp430/bin/../lib/gcc/msp430/4.7.0/../../../../msp430/lib/mcpu-430x/mmpy-16/msr20/mc20/libc.a(memmove.o)
 .data          0x00000000        0x0 /usr/local/msp430/bin/../lib/gcc/msp430/4.7.0/../../../../msp430/lib/mcpu-430x/mmpy-16/msr20/mc20/libc.a(memmove.o)
 .bss           0x00000000        0x0 /usr/local/msp430/bin/../lib/gcc/msp430/4.7.0/../../../../msp430/lib/mcpu-430x/mmpy-16/msr20/mc20/libc.a(memmove.o)
 .text          0x00000000        0x0 /usr/local/msp430/bin/../lib/gcc/msp430/4.7.0/../../../../msp430/lib/mcpu-430x/mmpy-16/msr20/mc20/libc.a(memset.o)
 .data          0x00000000        0x0 /usr/local/msp430/bin/../lib/gcc/msp430/4.7.0/../../../../msp430/lib/mcpu-430x/mmpy-16/msr20/mc20/libc.a(memset.o)
 .bss           0x00000000        0x0 /usr/local/msp430/bin/../lib/gcc/msp430/4.7.0/../../../../msp430/lib/mcpu-430x/mmpy-16/msr20/mc20/libc.a(memset.o)
 .text          0x00000000        0x0 /usr/local/msp430/bin/../lib/gcc/msp430/4.7.0/mcpu-430x/mmpy-16/msr20/mc20/libgcc.a(_udivmod64.o)
 .data          0x00000000        0x0 /usr/local/msp430/bin/../lib/gcc/msp430/4.7.0/mcpu-430x/mmpy-16/msr20/mc20/libgcc.a(_udivmod64.o)
 .bss           0x00000000        0x0 /usr/local/msp430/bin/../lib/gcc/msp430/4.7.0/mcpu-430x/mmpy-16/msr20/mc20/libgcc.a(_udivmod64.o)
 .text          0x00000000        0x0 /usr/local/msp430/bin/../lib/gcc/msp430/4.7.0/mcpu-430x/mmpy-16/msr20/mc20/libcrt0.a(_reset_vector__.o)
 .data          0x00000000        0x0 /usr/local/msp430/bin/../lib/gcc/msp430/4.7.0/mcpu-430x/mmpy-16/msr20/mc20/libcrt0.a(_reset_vector__.o)
 .bss           0x00000000        0x0 /usr/local/msp430/bin/../lib/gcc/msp430/4.7.0/mcpu-430x/mmpy-16/msr20/mc20/libcrt0.a(_reset_vector__.o)
 .text          0x00000000        0x0 /usr/local/msp430/bin/../lib/gcc/msp430/4.7.0/mcpu-430x/mmpy-16/msr20/mc20/libcrt0.a(__watchdog_support.o)
 .data          0x00000000        0x0 /usr/local/msp430/bin/../lib/gcc/msp430/4.7.0/mcpu-430x/mmpy-16/msr20/mc20/libcrt0.a(__watchdog_support.o)
 .bss           0x00000000        0x0 /usr/local/msp430/bin/../lib/gcc/msp430/4.7.0/mcpu-430x/mmpy-16/msr20/mc20/libcrt0.a(__watchdog_support.o)
 .text          0x00000000        0x0 /usr/local/msp430/bin/../lib/gcc/msp430/4.7.0/mcpu-430x/mmpy-16/msr20/mc20/libcrt0.a(__init_stack.o)
 .data          0x00000000        0x0 /usr/local/msp430/bin/../lib/gcc/msp430/4.7.0/mcpu-430x/mmpy-16/msr20/mc20/libcrt0.a(__init_stack.o)
 .bss           0x00000000        0x0 /usr/local/msp430/bin/../lib/gcc/msp430/4.7.0/mcpu-430x/mmpy-16/msr20/mc20/libcrt0.a(__init_stack.o)
 .text          0x00000000        0x0 /usr/local/msp430/bin/../lib/gcc/msp430/4.7.0/mcpu-430x/mmpy-16/msr20/mc20/libcrt0.a(__low_level_init.o)
 .data          0x00000000        0x0 /usr/local/msp430/bin/../lib/gcc/msp430/4.7.0/mcpu-430x/mmpy-16/msr20/mc20/libcrt0.a(__low_level_init.o)
 .bss           0x00000000        0x0 /usr/local/msp430/bin/../lib/gcc/msp430/4.7.0/mcpu-430x/mmpy-16/msr20/mc20/libcrt0.a(__low_level_init.o)
 .text          0x00000000        0x0 /usr/local/msp430/bin/../lib/gcc/msp430/4.7.0/mcpu-430x/mmpy-16/msr20/mc20/libcrt0.a(_copy_data.o)
 .data          0x00000000        0x0 /usr/local/msp430/bin/../lib/gcc/msp430/4.7.0/mcpu-430x/mmpy-16/msr20/mc20/libcrt0.a(_copy_data.o)
 .bss           0x00000000        0x0 /usr/local/msp430/bin/../lib/gcc/msp430/4.7.0/mcpu-430x/mmpy-16/msr20/mc20/libcrt0.a(_copy_data.o)
 .text          0x00000000        0x0 /usr/local/msp430/bin/../lib/gcc/msp430/4.7.0/mcpu-430x/mmpy-16/msr20/mc20/libcrt0.a(_clear_bss.o)
 .data          0x00000000        0x0 /usr/local/msp430/bin/../lib/gcc/msp430/4.7.0/mcpu-430x/mmpy-16/msr20/mc20/libcrt0.a(_clear_bss.o)
 .bss           0x00000000        0x0 /usr/local/msp430/bin/../lib/gcc/msp430/4.7.0/mcpu-430x/mmpy-16/msr20/mc20/libcrt0.a(_clear_bss.o)
 .text          0x00000000        0x0 /usr/local/msp430/bin/../lib/gcc/msp430/4.7.0/mcpu-430x/mmpy-16/msr20/mc20/libcrt0.a(__stop_progExec__.o)
 .data          0x00000000        0x0 /usr/local/msp430/bin/../lib/gcc/msp430/4.7.0/mcpu-430x/mmpy-16/msr20/mc20/libcrt0.a(__stop_progExec__.o)
 .bss           0x00000000        0x0 /usr/local/msp430/bin/../lib/gcc/msp430/4.7.0/mcpu-430x/mmpy-16/msr20/mc20/libcrt0.a(__stop_progExec__.o)
 .text          0x00000000        0x0 /usr/local/msp430/bin/../lib/gcc/msp430/4.7.0/mcpu-430x/mmpy-16/msr20/mc20/libcrt0.a(_endless_loop__.o)
 .data          0x00000000        0x0 /usr/local/msp430/bin/../lib/gcc/msp430/4.7.0/mcpu-430x/mmpy-16/msr20/mc20/libcrt0.a(_endless_loop__.o)
 .bss           0x00000000        0x0 /usr/local/msp430/bin/../lib/gcc/msp430/4.7.0/mcpu-430x/mmpy-16/msr20/mc20/libcrt0.a(_endless_loop__.o)
 .text          0x00000000        0x0 /usr/local/msp430/bin/../lib/gcc/msp430/4.7.0/mcpu-430x/mmpy-16/msr20/mc20/libcrt0.a(_unexpected_.o)
 .data          0x00000000        0x0 /usr/local/msp430/bin/../lib/gcc/msp430/4.7.0/mcpu-430x/mmpy-16/msr20/mc20/libcrt0.a(_unexpected_.o)
 .bss           0x00000000        0x0 /usr/local/msp430/bin/../lib/gcc/msp430/4.7.0/mcpu-430x/mmpy-16/msr20/mc20/libcrt0.a(_unexpected_.o)

Memory Configuration

Name             Origin             Length             Attributes
sfr              0x00000000         0x00000010
peripheral_8bit  0x00000010         0x000000f0
peripheral_16bit 0x00000100         0x00000100
ram_mirror       0x00000200         0x00000800         xw
infomem          0x00001000         0x00000100
infod            0x00001000         0x00000040
infoc            0x00001040         0x00000040
infob            0x00001080         0x00000040
infoa            0x000010c0         0x00000040
ram              0x00001100         0x00002000         xw
rom              0x00003100         0x0000cebe         xr
vectors          0x0000ffc0         0x00000040
far_rom          0x00010000         0x0000a000
bsl              0x00000000         0x00000000
ram2             0x00000000         0x00000000         xw
usbram           0x00000000         0x00000000         xw
*default*        0x00000000         0xffffffff

Linker script and memory map

LOAD /usr/local/msp430/bin/../lib/gcc/msp430/4.7.0/mcpu-430x/mmpy-16/msr20/mc20/crt0ivtbl32.o
                0x00000041                __P1SEL2 = 0x41
                0x00000045                __P5SEL2 = 0x45
LOAD coap-server.co
LOAD obj_z1/contiki-z1-main.o
LOAD contiki-z1.a
LOAD /usr/local/msp430/bin/../lib/gcc/msp430/4.7.0/mcpu-430x/mmpy-16/msr20/mc20/libgcc.a
LOAD /usr/local/msp430/bin/../lib/gcc/msp430/4.7.0/../../../../msp430/lib/mcpu-430x/mmpy-16/msr20/mc20/libc.a
LOAD /usr/local/msp430/bin/../lib/gcc/msp430/4.7.0/mcpu-430x/mmpy-16/msr20/mc20/libgcc.a
LOAD /usr/local/msp430/bin/../lib/gcc/msp430/4.7.0/mcpu-430x/mmpy-16/msr20/mc20/libcrt0.a
                0x00000040                PROVIDE (__info_segment_size, 0x40)
                0x00001000                PROVIDE (__infod, 0x1000)
                0x00001040                PROVIDE (__infoc, 0x1040)
                0x00001080                PROVIDE (__infob, 0x1080)
                0x000010c0                PROVIDE (__infoa, 0x10c0)
                0x00000000                __IE1 = 0x0
                0x00000002                __IFG1 = 0x2
                0x00000001                __IE2 = 0x1
                0x00000003                __IFG2 = 0x3
                0x00000006                __UC1IE = 0x6
                0x00000007                __UC1IFG = 0x7
                0x000001a0                __ADC12CTL0 = 0x1a0
                0x000001a2                __ADC12CTL1 = 0x1a2
                0x000001a4                __ADC12IFG = 0x1a4
                0x000001a6                __ADC12IE = 0x1a6
                0x000001a8                __ADC12IV = 0x1a8
                0x00000140                __ADC12MEM0 = 0x140
                0x00000142                __ADC12MEM1 = 0x142
                0x00000144                __ADC12MEM2 = 0x144
                0x00000146                __ADC12MEM3 = 0x146
                0x00000148                __ADC12MEM4 = 0x148
                0x0000014a                __ADC12MEM5 = 0x14a
                0x0000014c                __ADC12MEM6 = 0x14c
                0x0000014e                __ADC12MEM7 = 0x14e
                0x00000150                __ADC12MEM8 = 0x150
                0x00000152                __ADC12MEM9 = 0x152
                0x00000154                __ADC12MEM10 = 0x154
                0x00000156                __ADC12MEM11 = 0x156
                0x00000158                __ADC12MEM12 = 0x158
                0x0000015a                __ADC12MEM13 = 0x15a
                0x0000015c                __ADC12MEM14 = 0x15c
                0x0000015e                __ADC12MEM15 = 0x15e
                0x00000080                __ADC12MCTL0 = 0x80
                0x00000081                __ADC12MCTL1 = 0x81
                0x00000082                __ADC12MCTL2 = 0x82
                0x00000083                __ADC12MCTL3 = 0x83
                0x00000084                __ADC12MCTL4 = 0x84
                0x00000085                __ADC12MCTL5 = 0x85
                0x00000086                __ADC12MCTL6 = 0x86
                0x00000087                __ADC12MCTL7 = 0x87
                0x00000088                __ADC12MCTL8 = 0x88
                0x00000089                __ADC12MCTL9 = 0x89
                0x0000008a                __ADC12MCTL10 = 0x8a
                0x0000008b                __ADC12MCTL11 = 0x8b
                0x0000008c                __ADC12MCTL12 = 0x8c
                0x0000008d                __ADC12MCTL13 = 0x8d
                0x0000008e                __ADC12MCTL14 = 0x8e
                0x0000008f                __ADC12MCTL15 = 0x8f
                0x00000056                __DCOCTL = 0x56
                0x00000057                __BCSCTL1 = 0x57
                0x00000058                __BCSCTL2 = 0x58
                0x00000053                __BCSCTL3 = 0x53
                0x00000059                __CACTL1 = 0x59
                0x0000005a                __CACTL2 = 0x5a
                0x0000005b                __CAPD = 0x5b
                0x000001c0                __DAC12_0CTL = 0x1c0
                0x000001c2                __DAC12_1CTL = 0x1c2
                0x000001c8                __DAC12_0DAT = 0x1c8
                0x000001ca                __DAC12_1DAT = 0x1ca
                0x00000122                __DMACTL0 = 0x122
                0x00000124                __DMACTL1 = 0x124
                0x00000126                __DMAIV = 0x126
                0x000001d0                __DMA0CTL = 0x1d0
                0x000001dc                __DMA1CTL = 0x1dc
                0x000001e8                __DMA2CTL = 0x1e8
                0x000001d2                __DMA0SA = 0x1d2
                0x000001d2                __DMA0SAL = 0x1d2
                0x000001d6                __DMA0DA = 0x1d6
                0x000001d6                __DMA0DAL = 0x1d6
                0x000001da                __DMA0SZ = 0x1da
                0x000001de                __DMA1SA = 0x1de
                0x000001de                __DMA1SAL = 0x1de
                0x000001e2                __DMA1DA = 0x1e2
                0x000001e2                __DMA1DAL = 0x1e2
                0x000001e6                __DMA1SZ = 0x1e6
                0x000001ea                __DMA2SA = 0x1ea
                0x000001ea                __DMA2SAL = 0x1ea
                0x000001ee                __DMA2DA = 0x1ee
                0x000001ee                __DMA2DAL = 0x1ee
                0x000001f2                __DMA2SZ = 0x1f2
                0x00000128                __FCTL1 = 0x128
                0x0000012a                __FCTL2 = 0x12a
                0x0000012c                __FCTL3 = 0x12c
                0x000001be                __FCTL4 = 0x1be
                0x00000130                __MPY = 0x130
                0x00000132                __MPYS = 0x132
                0x00000134                __MAC = 0x134
                0x00000136                __MACS = 0x136
                0x00000138                __OP2 = 0x138
                0x0000013a                __RESLO = 0x13a
                0x0000013c                __RESHI = 0x13c
                0x0000013e                __SUMEXT = 0x13e
                0x00000020                __P1IN = 0x20
                0x00000021                __P1OUT = 0x21
                0x00000022                __P1DIR = 0x22
                0x00000023                __P1IFG = 0x23
                0x00000024                __P1IES = 0x24
                0x00000025                __P1IE = 0x25
                0x00000026                __P1SEL = 0x26
                0x00000027                __P1REN = 0x27
                0x00000028                __P2IN = 0x28
                0x00000029                __P2OUT = 0x29
                0x0000002a                __P2DIR = 0x2a
                0x0000002b                __P2IFG = 0x2b
                0x0000002c                __P2IES = 0x2c
                0x0000002d                __P2IE = 0x2d
                0x0000002e                __P2SEL = 0x2e
                0x0000002f                __P2REN = 0x2f
                0x00000018                __P3IN = 0x18
                0x00000019                __P3OUT = 0x19
                0x0000001a                __P3DIR = 0x1a
                0x0000001b                __P3SEL = 0x1b
                0x00000010                __P3REN = 0x10
                0x0000001c                __P4IN = 0x1c
                0x0000001d                __P4OUT = 0x1d
                0x0000001e                __P4DIR = 0x1e
                0x0000001f                __P4SEL = 0x1f
                0x00000011                __P4REN = 0x11
                0x00000030                __P5IN = 0x30
                0x00000031                __P5OUT = 0x31
                0x00000032                __P5DIR = 0x32
                0x00000033                __P5SEL = 0x33
                0x00000012                __P5REN = 0x12
                0x00000034                __P6IN = 0x34
                0x00000035                __P6OUT = 0x35
                0x00000036                __P6DIR = 0x36
                0x00000037                __P6SEL = 0x37
                0x00000013                __P6REN = 0x13
                0x00000038                __P7IN = 0x38
                0x0000003a                __P7OUT = 0x3a
                0x0000003c                __P7DIR = 0x3c
                0x0000003e                __P7SEL = 0x3e
                0x00000014                __P7REN = 0x14
                0x00000039                __P8IN = 0x39
                0x0000003b                __P8OUT = 0x3b
                0x0000003d                __P8DIR = 0x3d
                0x0000003f                __P8SEL = 0x3f
                0x00000015                __P8REN = 0x15
                0x00000038                __PAIN = 0x38
                0x0000003a                __PAOUT = 0x3a
                0x0000003c                __PADIR = 0x3c
                0x0000003e                __PASEL = 0x3e
                0x00000014                __PAREN = 0x14
                0x00000055                __SVSCTL = 0x55
                0x0000012e                __TAIV = 0x12e
                0x00000160                __TACTL = 0x160
                0x00000162                __TACCTL0 = 0x162
                0x00000164                __TACCTL1 = 0x164
                0x00000166                __TACCTL2 = 0x166
                0x00000170                __TAR = 0x170
                0x00000172                __TACCR0 = 0x172
                0x00000174                __TACCR1 = 0x174
                0x00000176                __TACCR2 = 0x176
                0x0000011e                __TBIV = 0x11e
                0x00000180                __TBCTL = 0x180
                0x00000182                __TBCCTL0 = 0x182
                0x00000184                __TBCCTL1 = 0x184
                0x00000186                __TBCCTL2 = 0x186
                0x00000188                __TBCCTL3 = 0x188
                0x0000018a                __TBCCTL4 = 0x18a
                0x0000018c                __TBCCTL5 = 0x18c
                0x0000018e                __TBCCTL6 = 0x18e
                0x00000190                __TBR = 0x190
                0x00000192                __TBCCR0 = 0x192
                0x00000194                __TBCCR1 = 0x194
                0x00000196                __TBCCR2 = 0x196
                0x00000198                __TBCCR3 = 0x198
                0x0000019a                __TBCCR4 = 0x19a
                0x0000019c                __TBCCR5 = 0x19c
                0x0000019e                __TBCCR6 = 0x19e
                0x00000060                __UCA0CTL0 = 0x60
                0x00000061                __UCA0CTL1 = 0x61
                0x00000062                __UCA0BR0 = 0x62
                0x00000063                __UCA0BR1 = 0x63
                0x00000064                __UCA0MCTL = 0x64
                0x00000065                __UCA0STAT = 0x65
                0x00000066                __UCA0RXBUF = 0x66
                0x00000067                __UCA0TXBUF = 0x67
                0x0000005d                __UCA0ABCTL = 0x5d
                0x0000005e                __UCA0IRTCTL = 0x5e
                0x0000005f                __UCA0IRRCTL = 0x5f
                0x00000068                __UCB0CTL0 = 0x68
                0x00000069                __UCB0CTL1 = 0x69
                0x0000006a                __UCB0BR0 = 0x6a
                0x0000006b                __UCB0BR1 = 0x6b
                0x0000006c                __UCB0I2CIE = 0x6c
                0x0000006d                __UCB0STAT = 0x6d
                0x0000006e                __UCB0RXBUF = 0x6e
                0x0000006f                __UCB0TXBUF = 0x6f
                0x00000118                __UCB0I2COA = 0x118
                0x0000011a                __UCB0I2CSA = 0x11a
                0x000000d0                __UCA1CTL0 = 0xd0
                0x000000d1                __UCA1CTL1 = 0xd1
                0x000000d2                __UCA1BR0 = 0xd2
                0x000000d3                __UCA1BR1 = 0xd3
                0x000000d4                __UCA1MCTL = 0xd4
                0x000000d5                __UCA1STAT = 0xd5
                0x000000d6                __UCA1RXBUF = 0xd6
                0x000000d7                __UCA1TXBUF = 0xd7
                0x000000cd                __UCA1ABCTL = 0xcd
                0x000000ce                __UCA1IRTCTL = 0xce
                0x000000cf                __UCA1IRRCTL = 0xcf
                0x000000d8                __UCB1CTL0 = 0xd8
                0x000000d9                __UCB1CTL1 = 0xd9
                0x000000da                __UCB1BR0 = 0xda
                0x000000db                __UCB1BR1 = 0xdb
                0x000000dc                __UCB1I2CIE = 0xdc
                0x000000dd                __UCB1STAT = 0xdd
                0x000000de                __UCB1RXBUF = 0xde
                0x000000df                __UCB1TXBUF = 0xdf
                0x0000017c                __UCB1I2COA = 0x17c
                0x0000017e                __UCB1I2CSA = 0x17e
                0x00000120                __WDTCTL = 0x120
                0x000010c0                __TLV_CHECKSUM = 0x10c0
                0x000010f6                __TLV_DCO_30_TAG = 0x10f6
                0x000010f7                __TLV_DCO_30_LEN = 0x10f7
                0x000010da                __TLV_ADC12_1_TAG = 0x10da
                0x000010db                __TLV_ADC12_1_LEN = 0x10db
                0x000010f8                __CALDCO_16MHZ = 0x10f8
                0x000010f9                __CALBC1_16MHZ = 0x10f9
                0x000010fa                __CALDCO_12MHZ = 0x10fa
                0x000010fb                __CALBC1_12MHZ = 0x10fb
                0x000010fc                __CALDCO_8MHZ = 0x10fc
                0x000010fd                __CALBC1_8MHZ = 0x10fd
                0x000010fe                __CALDCO_1MHZ = 0x10fe
                0x000010ff                __CALBC1_1MHZ = 0x10ff

.hash
 *(.hash)

.dynsym
 *(.dynsym)

.dynstr
 *(.dynstr)

.gnu.version
 *(.gnu.version)

.gnu.version_d
 *(.gnu.version_d)

.gnu.version_r
 *(.gnu.version_r)

.rel.init
 *(.rel.init)

.rela.init
 *(.rela.init)

.rel.fini
 *(.rel.fini)

.rela.fini
 *(.rela.fini)

.rel.text
 *(.rel.text .rel.text.* .rel.gnu.linkonce.t.*)

.rela.text
 *(.rela.text .rela.text.* .rela.gnu.linkonce.t.*)

.rel.rodata
 *(.rel.rodata .rel.rodata.* .rel.gnu.linkonce.r.*)

.rela.rodata
 *(.rela.rodata .rela.rodata.* .rela.gnu.linkonce.r.*)

.rel.data
 *(.rel.data .rel.data.* .rel.gnu.linkonce.d.*)

.rela.data
 *(.rela.data .rela.data.* .rela.gnu.linkonce.d.*)

.rel.bss
 *(.rel.bss .rel.bss.* .rel.gnu.linkonce.b.*)

.rela.bss
 *(.rela.bss .rela.bss.* .rela.gnu.linkonce.b.*)

.rel.ctors
 *(.rel.ctors)

.rela.ctors
 *(.rela.ctors)

.rel.dtors
 *(.rel.dtors)

.rela.dtors
 *(.rela.dtors)

.rel.got
 *(.rel.got)

.rela.got
 *(.rela.got)

.rel.plt
 *(.rel.plt)

.rela.plt
 *(.rela.plt)

.text           0x00003100     0xb806
                0x00003100                . = ALIGN (0x2)
 *(.init .init.*)
 *(.init0)
 .init0         0x00003100        0x0 /usr/local/msp430/bin/../lib/gcc/msp430/4.7.0/mcpu-430x/mmpy-16/msr20/mc20/libcrt0.a(_reset_vector__.o)
                0x00003100                _reset_vector__
 *(.init1)
 .init1         0x00003100        0xc /usr/local/msp430/bin/../lib/gcc/msp430/4.7.0/mcpu-430x/mmpy-16/msr20/mc20/libcrt0.a(__watchdog_support.o)
                0x00003100                __watchdog_support
 *(.init2)
 .init2         0x0000310c        0x4 /usr/local/msp430/bin/../lib/gcc/msp430/4.7.0/mcpu-430x/mmpy-16/msr20/mc20/libcrt0.a(__init_stack.o)
                0x0000310c                __init_stack
 *(.init3)
 .init3         0x00003110        0x0 /usr/local/msp430/bin/../lib/gcc/msp430/4.7.0/mcpu-430x/mmpy-16/msr20/mc20/libcrt0.a(__low_level_init.o)
                0x00003110                __low_level_init
 *(.init4)
 .init4         0x00003110       0x18 /usr/local/msp430/bin/../lib/gcc/msp430/4.7.0/mcpu-430x/mmpy-16/msr20/mc20/libcrt0.a(_copy_data.o)
                0x00003110                __do_copy_data
 .init4         0x00003128       0x16 /usr/local/msp430/bin/../lib/gcc/msp430/4.7.0/mcpu-430x/mmpy-16/msr20/mc20/libcrt0.a(_clear_bss.o)
                0x00003128                __do_clear_bss
 *(.init5)
 *(.init6)
 *(.init7)
 *(.init8)
 *(.init9)
 .init9         0x0000313e      0x35c obj_z1/contiki-z1-main.o
                0x0000313e                main
 *(.fini9)
 .fini9         0x0000349a        0x0 /usr/local/msp430/bin/../lib/gcc/msp430/4.7.0/mcpu-430x/mmpy-16/msr20/mc20/libcrt0.a(__stop_progExec__.o)
                0x0000349a                __stop_progExec__
 *(.fini8)
 *(.fini7)
 *(.fini6)
 *(.fini5)
 *(.fini4)
 *(.fini3)
 *(.fini2)
 *(.fini1)
 *(.fini0)
 .fini0         0x0000349a        0x6 /usr/local/msp430/bin/../lib/gcc/msp430/4.7.0/mcpu-430x/mmpy-16/msr20/mc20/libcrt0.a(_endless_loop__.o)
                0x0000349a                _endless_loop__
 *(.fini .fini.*)
                0x000034a0                . = ALIGN (0x2)
                0x000034a0                __ctors_start = .
 *(.ctors)
                0x000034a0                __ctors_end = .
                0x000034a0                __dtors_start = .
 *(.dtors)
                0x000034a0                __dtors_end = .
                0x000034a0                . = ALIGN (0x2)
 *(.text .text.* .gnu.linkonce.t.*)
 .text          0x000034a0        0x4 /usr/local/msp430/bin/../lib/gcc/msp430/4.7.0/mcpu-430x/mmpy-16/msr20/mc20/crt0ivtbl32.o
                0x000034a0                __isr_14
                0x000034a0                __isr_4
                0x000034a0                __isr_29
                0x000034a0                __isr_11
                0x000034a0                __isr_5
                0x000034a0                __isr_2
                0x000034a0                __isr_10
                0x000034a0                __isr_7
                0x000034a0                __isr_0
                0x000034a0                __isr_28
                0x000034a0                __isr_8
                0x000034a0                __isr_20
                0x000034a0                __isr_3
                0x000034a0                __isr_12
                0x000034a0                __isr_13
                0x000034a0                __isr_27
                0x000034a0                __isr_9
                0x000034a0                __isr_30
                0x000034a0                __isr_6
                0x000034a0                __isr_22
                0x000034a0                __isr_1
                0x000034a0                __isr_15
                0x000034a0                __isr_21
 .text.libgcc   0x000034a4       0x26 /usr/local/msp430/bin/../lib/gcc/msp430/4.7.0/mcpu-430x/mmpy-16/msr20/mc20/libgcc.a(_mulsi3.o)
                0x000034a4                __mulsi3
 .text.libgcc   0x000034ca       0x22 /usr/local/msp430/bin/../lib/gcc/msp430/4.7.0/mcpu-430x/mmpy-16/msr20/mc20/libgcc.a(_udivmod16.o)
                0x000034ca                __udivhi3
                0x000034ca                __ext_udivmod16
                0x000034e4                __umodhi3
 .text.libgcc   0x000034ec       0x3a /usr/local/msp430/bin/../lib/gcc/msp430/4.7.0/mcpu-430x/mmpy-16/msr20/mc20/libgcc.a(_divmod16.o)
                0x000034ec                __ext_divmod16
                0x000034ec                __divhi3
                0x0000351e                __modhi3
 .text.libgcc   0x00003526       0x38 /usr/local/msp430/bin/../lib/gcc/msp430/4.7.0/mcpu-430x/mmpy-16/msr20/mc20/libgcc.a(_udivmod32.o)
                0x00003526                __udivsi3
                0x00003526                __ext_udivmod32
                0x00003554                __umodsi3
 .text.libgcc   0x0000355e       0x4c /usr/local/msp430/bin/../lib/gcc/msp430/4.7.0/mcpu-430x/mmpy-16/msr20/mc20/libgcc.a(_divmod32.o)
                0x0000355e                __ext_divmod32
                0x0000355e                __divsi3
                0x000035a0                __modsi3
 .text.printf   0x000035aa       0x10 /usr/local/msp430/bin/../lib/gcc/msp430/4.7.0/../../../../msp430/lib/mcpu-430x/mmpy-16/msr20/mc20/libc.a(printf.o)
                0x000035aa                printf
 .text.append   0x000035ba       0x22 /usr/local/msp430/bin/../lib/gcc/msp430/4.7.0/../../../../msp430/lib/mcpu-430x/mmpy-16/msr20/mc20/libc.a(sprintf.o)
 .text.call_vuprintf
                0x000035dc       0x36 /usr/local/msp430/bin/../lib/gcc/msp430/4.7.0/../../../../msp430/lib/mcpu-430x/mmpy-16/msr20/mc20/libc.a(sprintf.o)
 .text.sprintf  0x00003612       0x1a /usr/local/msp430/bin/../lib/gcc/msp430/4.7.0/../../../../msp430/lib/mcpu-430x/mmpy-16/msr20/mc20/libc.a(sprintf.o)
                0x00003612                sprintf
 .text.snprintf
                0x0000362c       0x1c /usr/local/msp430/bin/../lib/gcc/msp430/4.7.0/../../../../msp430/lib/mcpu-430x/mmpy-16/msr20/mc20/libc.a(sprintf.o)
                0x0000362c                snprintf
 .text.print_field
                0x00003648      0x176 /usr/local/msp430/bin/../lib/gcc/msp430/4.7.0/../../../../msp430/lib/mcpu-430x/mmpy-16/msr20/mc20/libc.a(vuprintf.o)
 .text.vuprintf
                0x000037be      0x74c /usr/local/msp430/bin/../lib/gcc/msp430/4.7.0/../../../../msp430/lib/mcpu-430x/mmpy-16/msr20/mc20/libc.a(vuprintf.o)
                0x000037be                vuprintf
 .text.puts     0x00003f0a       0x2c /usr/local/msp430/bin/../lib/gcc/msp430/4.7.0/../../../../msp430/lib/mcpu-430x/mmpy-16/msr20/mc20/libc.a(puts.o)
                0x00003f0a                puts
 .text.rand     0x00003f36       0x26 /usr/local/msp430/bin/../lib/gcc/msp430/4.7.0/../../../../msp430/lib/mcpu-430x/mmpy-16/msr20/mc20/libc.a(rand.o)
                0x00003f36                rand
 .text.strchr   0x00003f5c       0x16 /usr/local/msp430/bin/../lib/gcc/msp430/4.7.0/../../../../msp430/lib/mcpu-430x/mmpy-16/msr20/mc20/libc.a(strchr.o)
                0x00003f5c                strchr
 .text.memchr   0x00003f72       0x1e /usr/local/msp430/bin/../lib/gcc/msp430/4.7.0/../../../../msp430/lib/mcpu-430x/mmpy-16/msr20/mc20/libc.a(memchr.o)
                0x00003f72                memchr
 .text.strncmp  0x00003f90       0x2a /usr/local/msp430/bin/../lib/gcc/msp430/4.7.0/../../../../msp430/lib/mcpu-430x/mmpy-16/msr20/mc20/libc.a(strncmp.o)
                0x00003f90                strncmp
 .text.memcmp   0x00003fba       0x2c /usr/local/msp430/bin/../lib/gcc/msp430/4.7.0/../../../../msp430/lib/mcpu-430x/mmpy-16/msr20/mc20/libc.a(memcmp.o)
                0x00003fba                memcmp
 .text.memcpy   0x00003fe6       0xe8 /usr/local/msp430/bin/../lib/gcc/msp430/4.7.0/../../../../msp430/lib/mcpu-430x/mmpy-16/msr20/mc20/libc.a(memcpy.o)
                0x00003fe6                memcpy
 .text.memmove  0x000040ce       0xe8 /usr/local/msp430/bin/../lib/gcc/msp430/4.7.0/../../../../msp430/lib/mcpu-430x/mmpy-16/msr20/mc20/libc.a(memmove.o)
                0x000040ce                memmove
 .text.memset   0x000041b6       0x5c /usr/local/msp430/bin/../lib/gcc/msp430/4.7.0/../../../../msp430/lib/mcpu-430x/mmpy-16/msr20/mc20/libc.a(memset.o)
                0x000041b6                memset
 .text.libgcc   0x00004212       0xbc /usr/local/msp430/bin/../lib/gcc/msp430/4.7.0/mcpu-430x/mmpy-16/msr20/mc20/libgcc.a(_udivmod64.o)
                0x00004212                __xabi_udivmod64
                0x00004264                __udivdi3
                0x0000427e                __umoddi3
                0x000042a0                __udivmoddi4
 .text.crt0     0x000042ce        0x2 /usr/local/msp430/bin/../lib/gcc/msp430/4.7.0/mcpu-430x/mmpy-16/msr20/mc20/libcrt0.a(_unexpected_.o)
                0x000042ce                _unexpected_
 *(.near.text .near.text.*)
 .near.text.watchdog_interrupt
                0x000042d0        0x6 contiki-z1.a(watchdog.o)
                0x000042d0                __isr_26
                0x000042d0                watchdog_interrupt
 .near.text.irq_p2
                0x000042d6       0x76 contiki-z1.a(button-sensor.o)
                0x000042d6                irq_p2
                0x000042d6                __isr_19
 .near.text.uart0_rx_interrupt
                0x0000434c       0x64 contiki-z1.a(uart0.o)
                0x0000434c                __isr_23
                0x0000434c                uart0_rx_interrupt
 .near.text.port1_isr
                0x000043b0       0xbe contiki-z1.a(adxl345.o)
                0x000043b0                port1_isr
                0x000043b0                __isr_18
 .near.text.timera1
                0x0000446e      0x10a contiki-z1.a(clock.o)
                0x0000446e                __isr_24
                0x0000446e                timera1
 .near.text.timera0
                0x00004578       0x5c contiki-z1.a(rtimer-arch.o)
                0x00004578                __isr_25
                0x00004578                timera0
 .near.text.i2c_tx_interrupt
                0x000045d4       0x84 contiki-z1.a(i2cmaster.o)
                0x000045d4                __isr_16
                0x000045d4                i2c_tx_interrupt
 .near.text.i2c_rx_interrupt
                0x00004658       0x14 contiki-z1.a(i2cmaster.o)
                0x00004658                i2c_rx_interrupt
                0x00004658                __isr_17
 .any.text.process_thread_server
                0x0000466c       0x38 coap-server.co
 .any.text.post_handler
                0x000046a4       0xe2 coap-server.co
                0x000046a4                post_handler
 .any.text.get_handler
                0x00004786       0x98 coap-server.co
                0x00004786                get_handler
 .any.text.coap_set_service_callback
                0x0000481e        0x6 contiki-z1.a(er-coap-engine.)
                0x0000481e                coap_set_service_callback
 .any.text.coap_get_rest_method
                0x00004824       0x16 contiki-z1.a(er-coap-engine.)
                0x00004824                coap_get_rest_method
 .any.text.process_thread_coap_engine
                0x0000483a      0x418 contiki-z1.a(er-coap-engine.)
 .any.text.coap_init_engine
                0x00004c52        0xc contiki-z1.a(er-coap-engine.)
                0x00004c52                coap_init_engine
 .any.text.coap_register_as_transaction_handler
                0x00004c5e        0x8 contiki-z1.a(er-coap-transac)
                0x00004c5e                coap_register_as_transaction_handler
 .any.text.coap_new_transaction
                0x00004c66       0x46 contiki-z1.a(er-coap-transac)
                0x00004c66                coap_new_transaction
 .any.text.coap_clear_transaction
                0x00004cac       0x26 contiki-z1.a(er-coap-transac)
                0x00004cac                coap_clear_transaction
 .any.text.coap_send_transaction
                0x00004cd2       0xac contiki-z1.a(er-coap-transac)
                0x00004cd2                coap_send_transaction
 .any.text.coap_get_transaction_by_mid
                0x00004d7e       0x1e contiki-z1.a(er-coap-transac)
                0x00004d7e                coap_get_transaction_by_mid
 .any.text.coap_check_transactions
                0x00004d9c       0x2e contiki-z1.a(er-coap-transac)
                0x00004d9c                coap_check_transactions
 .any.text.coap_remove_observer
                0x00004dca       0x1c contiki-z1.a(er-coap-observe)
                0x00004dca                coap_remove_observer
 .any.text.coap_remove_observer_by_client
                0x00004de6       0x40 contiki-z1.a(er-coap-observe)
                0x00004de6                coap_remove_observer_by_client
 .any.text.coap_remove_observer_by_token
                0x00004e26       0x5e contiki-z1.a(er-coap-observe)
                0x00004e26                coap_remove_observer_by_token
 .any.text.coap_remove_observer_by_uri
                0x00004e84       0x6a contiki-z1.a(er-coap-observe)
                0x00004e84                coap_remove_observer_by_uri
 .any.text.coap_add_observer
                0x00004eee       0x5c contiki-z1.a(er-coap-observe)
                0x00004eee                coap_add_observer
 .any.text.coap_remove_observer_by_mid
                0x00004f4a       0x48 contiki-z1.a(er-coap-observe)
                0x00004f4a                coap_remove_observer_by_mid
 .any.text.coap_notify_observers
                0x00004f92       0xdc contiki-z1.a(er-coap-observe)
                0x00004f92                coap_notify_observers
 .any.text.coap_observe_handler
                0x0000506e       0xb6 contiki-z1.a(er-coap-observe)
                0x0000506e                coap_observe_handler
 .any.text.well_known_core_get_handler
                0x00005124      0x25a contiki-z1.a(er-coap-res-wel)
                0x00005124                well_known_core_get_handler
 .any.text.process_thread_rest_engine_process
                0x0000537e       0xc0 contiki-z1.a(rest-engine.o)
 .any.text.rest_invoke_restful_service
                0x0000543e      0x11c contiki-z1.a(rest-engine.o)
                0x0000543e                rest_invoke_restful_service
 .any.text.rest_init_engine
                0x0000555a       0x26 contiki-z1.a(rest-engine.o)
                0x0000555a                rest_init_engine
 .any.text.rest_activate_resource
                0x00005580       0x3e contiki-z1.a(rest-engine.o)
                0x00005580                rest_activate_resource
 .any.text.rest_get_resources
                0x000055be        0x6 contiki-z1.a(rest-engine.o)
                0x000055be                rest_get_resources
 .any.text.init_platform
                0x000055c4        0xc contiki-z1.a(contiki-z1-plat)
                0x000055c4                init_platform
 .any.text.msp430_init_dco
                0x000055d0       0x28 contiki-z1.a(msp430.o)
                0x000055d0                msp430_init_dco
 .any.text.splhigh_
                0x000055f8        0x8 contiki-z1.a(msp430.o)
                0x000055f8                splhigh_
 .any.text.msp430_sync_dco
                0x00005600       0x6e contiki-z1.a(msp430.o)
                0x00005600                msp430_sync_dco
 .any.text.msp430_cpu_init
                0x0000566e       0x2a contiki-z1.a(msp430.o)
                0x0000566e                msp430_cpu_init
 .any.text.show_leds
                0x00005698       0xe8 contiki-z1.a(leds.o)
 .any.text.leds_init
                0x00005780        0xa contiki-z1.a(leds.o)
                0x00005780                leds_init
 .any.text.leds_get
                0x0000578a        0x6 contiki-z1.a(leds.o)
                0x0000578a                leds_get
 .any.text.leds_on
                0x00005790        0xa contiki-z1.a(leds.o)
                0x00005790                leds_on
 .any.text.leds_off
                0x0000579a        0xe contiki-z1.a(leds.o)
                0x0000579a                leds_off
 .any.text.watchdog_start
                0x000057a8       0x14 contiki-z1.a(watchdog.o)
                0x000057a8                watchdog_start
 .any.text.watchdog_periodic
                0x000057bc       0x12 contiki-z1.a(watchdog.o)
                0x000057bc                watchdog_periodic
 .any.text.watchdog_stop
                0x000057ce       0x16 contiki-z1.a(watchdog.o)
                0x000057ce                watchdog_stop
 .any.text.watchdog_init
                0x000057e4       0x12 contiki-z1.a(watchdog.o)
                0x000057e4                watchdog_init
 .any.text.wait_ready
                0x000057f6       0x46 contiki-z1.a(xmem.o)
 .any.text.xmem_init
                0x0000583c       0x1e contiki-z1.a(xmem.o)
                0x0000583c                xmem_init
 .any.text.xmem_pread
                0x0000585a       0xc2 contiki-z1.a(xmem.o)
                0x0000585a                xmem_pread
 .any.text.spi_init
                0x0000591c       0x32 contiki-z1.a(spi.o)
                0x0000591c                spi_init
 .any.text.get_object
                0x0000594e        0x4 contiki-z1.a(cc2420.o)
 .any.text.set_object
                0x00005952        0x4 contiki-z1.a(cc2420.o)
 .any.text.strobe
                0x00005956       0x1a contiki-z1.a(cc2420.o)
 .any.text.getreg
                0x00005970       0x46 contiki-z1.a(cc2420.o)
 .any.text.setreg
                0x000059b6       0x44 contiki-z1.a(cc2420.o)
 .any.text.write_ram
                0x000059fa       0x72 contiki-z1.a(cc2420.o)
 .any.text.write_fifo_buf
                0x00005a6c       0x38 contiki-z1.a(cc2420.o)
 .any.text.get_status
                0x00005aa4       0x1e contiki-z1.a(cc2420.o)
 .any.text.set_txpower
                0x00005ac2       0x24 contiki-z1.a(cc2420.o)
 .any.text.cc2420_receiving_packet
                0x00005ae6        0xa contiki-z1.a(cc2420.o)
 .any.text.pending_packet
                0x00005af0        0xa contiki-z1.a(cc2420.o)
 .any.text.on   0x00005afa       0x1e contiki-z1.a(cc2420.o)
 .any.text.wait_for_transmission
                0x00005b18       0x22 contiki-z1.a(cc2420.o)
 .any.text.wait_for_status
                0x00005b3a       0x24 contiki-z1.a(cc2420.o)
 .any.text.getrxdata
                0x00005b5e       0x4c contiki-z1.a(cc2420.o)
 .any.text.flushrx
                0x00005baa       0x1a contiki-z1.a(cc2420.o)
 .any.text.off  0x00005bc4       0x52 contiki-z1.a(cc2420.o)
 .any.text.RELEASE_LOCK
                0x00005c16       0x28 contiki-z1.a(cc2420.o)
 .any.text.cc2420_prepare
                0x00005c3e       0x38 contiki-z1.a(cc2420.o)
 .any.text.cc2420_on
                0x00005c76       0x22 contiki-z1.a(cc2420.o)
                0x00005c76                cc2420_on
 .any.text.cc2420_off
                0x00005c98       0x30 contiki-z1.a(cc2420.o)
                0x00005c98                cc2420_off
 .any.text.cc2420_cca
                0x00005cc8       0x54 contiki-z1.a(cc2420.o)
 .any.text.cc2420_read
                0x00005d1c       0xa8 contiki-z1.a(cc2420.o)
 .any.text.process_thread_cc2420_process
                0x00005dc4       0x54 contiki-z1.a(cc2420.o)
 .any.text.cc2420_set_channel
                0x00005e18       0x3a contiki-z1.a(cc2420.o)
                0x00005e18                cc2420_set_channel
 .any.text.cc2420_set_pan_addr
                0x00005e52       0x4c contiki-z1.a(cc2420.o)
                0x00005e52                cc2420_set_pan_addr
 .any.text.cc2420_interrupt
                0x00005e9e       0x16 contiki-z1.a(cc2420.o)
                0x00005e9e                cc2420_interrupt
 .any.text.cc2420_set_txpower
                0x00005eb4        0xe contiki-z1.a(cc2420.o)
                0x00005eb4                cc2420_set_txpower
 .any.text.cc2420_get_txpower
                0x00005ec2       0x1e contiki-z1.a(cc2420.o)
                0x00005ec2                cc2420_get_txpower
 .any.text.cc2420_transmit
                0x00005ee0      0x108 contiki-z1.a(cc2420.o)
 .any.text.cc2420_send
                0x00005fe8       0x12 contiki-z1.a(cc2420.o)
 .any.text.cc2420_rssi
                0x00005ffa       0x48 contiki-z1.a(cc2420.o)
                0x00005ffa                cc2420_rssi
 .any.text.get_value
                0x00006042       0xa8 contiki-z1.a(cc2420.o)
 .any.text.cc2420_set_cca_threshold
                0x000060ea       0x16 contiki-z1.a(cc2420.o)
                0x000060ea                cc2420_set_cca_threshold
 .any.text.set_value
                0x00006100       0x80 contiki-z1.a(cc2420.o)
 .any.text.cc2420_init
                0x00006180       0xd8 contiki-z1.a(cc2420.o)
                0x00006180                cc2420_init
 .any.text.cc2420_arch_init
                0x00006258       0x1a contiki-z1.a(cc2420-arch.o)
                0x00006258                cc2420_arch_init
 .any.text.node_id_restore
                0x00006272       0x4c contiki-z1.a(node-id.o)
                0x00006272                node_id_restore
 .any.text.process_thread_sensors_process
                0x000062be       0xc2 contiki-z1.a(sensors.o)
 .any.text.sensors_changed
                0x00006380       0x2a contiki-z1.a(sensors.o)
                0x00006380                sensors_changed
 .any.text.status
                0x000063aa       0x18 contiki-z1.a(button-sensor.o)
 .any.text.value
                0x000063c2       0x20 contiki-z1.a(button-sensor.o)
 .any.text.configure
                0x000063e2       0x4e contiki-z1.a(button-sensor.o)
 .any.text.uart0_active
                0x00006430        0xe contiki-z1.a(uart0.o)
                0x00006430                uart0_active
 .any.text.uart0_writeb
                0x0000643e       0x16 contiki-z1.a(uart0.o)
                0x0000643e                uart0_writeb
 .any.text.uart0_init
                0x00006454       0x40 contiki-z1.a(uart0.o)
                0x00006454                uart0_init
 .any.text.putchar
                0x00006494       0x10 contiki-z1.a(uart0-putchar.o)
                0x00006494                putchar
 .any.text.accm_write_reg
                0x000064a4       0x2e contiki-z1.a(adxl345.o)
                0x000064a4                accm_write_reg
 .any.text.accm_write_stream
                0x000064d2       0x2a contiki-z1.a(adxl345.o)
                0x000064d2                accm_write_stream
 .any.text.accm_read_reg
                0x000064fc       0x54 contiki-z1.a(adxl345.o)
                0x000064fc                accm_read_reg
 .any.text.process_thread_accmeter_process
                0x00006550       0x56 contiki-z1.a(adxl345.o)
 .any.text.accm_init
                0x000065a6       0x8c contiki-z1.a(adxl345.o)
                0x000065a6                accm_init
 .any.text.clock_time
                0x00006632       0x1a contiki-z1.a(clock.o)
                0x00006632                clock_time
 .any.text.clock_init
                0x0000664c       0x28 contiki-z1.a(clock.o)
                0x0000664c                clock_init
 .any.text.clock_delay
                0x00006674        0xc contiki-z1.a(clock.o)
                0x00006674                clock_delay
 .any.text.clock_wait
                0x00006680       0x24 contiki-z1.a(clock.o)
                0x00006680                clock_wait
 .any.text.clock_seconds
                0x000066a4       0x1a contiki-z1.a(clock.o)
                0x000066a4                clock_seconds
 .any.text.leds_arch_init
                0x000066be        0xe contiki-z1.a(leds-arch.o)
                0x000066be                leds_arch_init
 .any.text.leds_arch_get
                0x000066cc       0x2e contiki-z1.a(leds-arch.o)
                0x000066cc                leds_arch_get
 .any.text.leds_arch_set
                0x000066fa       0x38 contiki-z1.a(leds-arch.o)
                0x000066fa                leds_arch_set
 .any.text.rtimer_arch_init
                0x00006732        0xe contiki-z1.a(rtimer-arch.o)
                0x00006732                rtimer_arch_init
 .any.text.rtimer_arch_now
                0x00006740        0xe contiki-z1.a(rtimer-arch.o)
                0x00006740                rtimer_arch_now
 .any.text.rtimer_arch_schedule
                0x0000674e        0x6 contiki-z1.a(rtimer-arch.o)
                0x0000674e                rtimer_arch_schedule
 .any.text.autostart_start
                0x00006754       0x16 contiki-z1.a(autostart.o)
                0x00006754                autostart_start
 .any.text.process_thread_ctimer_process
                0x0000676a       0xa0 contiki-z1.a(ctimer.o)
 .any.text.ctimer_init
                0x0000680a       0x18 contiki-z1.a(ctimer.o)
                0x0000680a                ctimer_init
 .any.text.ctimer_set
                0x00006822       0x48 contiki-z1.a(ctimer.o)
                0x00006822                ctimer_set
 .any.text.ctimer_reset
                0x0000686a       0x2c contiki-z1.a(ctimer.o)
                0x0000686a                ctimer_reset
 .any.text.ctimer_stop
                0x00006896       0x28 contiki-z1.a(ctimer.o)
                0x00006896                ctimer_stop
 .any.text.energest_init
                0x000068be       0x24 contiki-z1.a(energest.o)
                0x000068be                energest_init
 .any.text.energest_type_time
                0x000068e2       0x3c contiki-z1.a(energest.o)
                0x000068e2                energest_type_time
 .any.text.energest_type_set
                0x0000691e        0xc contiki-z1.a(energest.o)
                0x0000691e                energest_type_set
 .any.text.energest_flush
                0x0000692a       0x38 contiki-z1.a(energest.o)
                0x0000692a                energest_flush
 .any.text.update_time
                0x00006962       0x70 contiki-z1.a(etimer.o)
 .any.text.etimer_request_poll
                0x000069d2        0xa contiki-z1.a(etimer.o)
                0x000069d2                etimer_request_poll
 .any.text.process_thread_etimer_process
                0x000069dc       0xc4 contiki-z1.a(etimer.o)
 .any.text.add_timer
                0x00006aa0       0x40 contiki-z1.a(etimer.o)
 .any.text.etimer_set
                0x00006ae0       0x12 contiki-z1.a(etimer.o)
                0x00006ae0                etimer_set
 .any.text.etimer_reset
                0x00006af2       0x12 contiki-z1.a(etimer.o)
                0x00006af2                etimer_reset
 .any.text.etimer_restart
                0x00006b04       0x12 contiki-z1.a(etimer.o)
                0x00006b04                etimer_restart
 .any.text.etimer_expired
                0x00006b16        0xe contiki-z1.a(etimer.o)
                0x00006b16                etimer_expired
 .any.text.etimer_expiration_time
                0x00006b24       0x14 contiki-z1.a(etimer.o)
                0x00006b24                etimer_expiration_time
 .any.text.etimer_pending
                0x00006b38        0xc contiki-z1.a(etimer.o)
                0x00006b38                etimer_pending
 .any.text.etimer_next_expiration_time
                0x00006b44       0x16 contiki-z1.a(etimer.o)
                0x00006b44                etimer_next_expiration_time
 .any.text.etimer_stop
                0x00006b5a       0x3e contiki-z1.a(etimer.o)
                0x00006b5a                etimer_stop
 .any.text.call_process
                0x00006b98       0x40 contiki-z1.a(process.o)
 .any.text.exit_process
                0x00006bd8       0x88 contiki-z1.a(process.o)
 .any.text.do_poll
                0x00006c60       0x30 contiki-z1.a(process.o)
 .any.text.process_alloc_event
                0x00006c90        0xe contiki-z1.a(process.o)
                0x00006c90                process_alloc_event
 .any.text.process_init
                0x00006c9e       0x1c contiki-z1.a(process.o)
                0x00006c9e                process_init
 .any.text.process_run
                0x00006cba       0xa4 contiki-z1.a(process.o)
                0x00006cba                process_run
 .any.text.process_nevents
                0x00006d5e        0xe contiki-z1.a(process.o)
                0x00006d5e                process_nevents
 .any.text.process_post
                0x00006d6c       0x50 contiki-z1.a(process.o)
                0x00006d6c                process_post
 .any.text.process_post_synch
                0x00006dbc       0x12 contiki-z1.a(process.o)
                0x00006dbc                process_post_synch
 .any.text.process_start
                0x00006dce       0x36 contiki-z1.a(process.o)
                0x00006dce                process_start
 .any.text.process_poll
                0x00006e04       0x18 contiki-z1.a(process.o)
                0x00006e04                process_poll
 .any.text.rtimer_init
                0x00006e1c        0x6 contiki-z1.a(rtimer.o)
                0x00006e1c                rtimer_init
 .any.text.rtimer_run_next
                0x00006e22       0x26 contiki-z1.a(rtimer.o)
                0x00006e22                rtimer_run_next
 .any.text.timer_set
                0x00006e48       0x1c contiki-z1.a(timer.o)
                0x00006e48                timer_set
 .any.text.timer_reset
                0x00006e64        0xe contiki-z1.a(timer.o)
                0x00006e64                timer_reset
 .any.text.timer_restart
                0x00006e72       0x14 contiki-z1.a(timer.o)
                0x00006e72                timer_restart
 .any.text.timer_expired
                0x00006e86       0x2a contiki-z1.a(timer.o)
                0x00006e86                timer_expired
 .any.text.list_init
                0x00006eb0        0x6 contiki-z1.a(list.o)
                0x00006eb0                list_init
 .any.text.list_head
                0x00006eb6        0x4 contiki-z1.a(list.o)
                0x00006eb6                list_head
 .any.text.list_tail
                0x00006eba       0x12 contiki-z1.a(list.o)
                0x00006eba                list_tail
 .any.text.list_remove
                0x00006ecc       0x34 contiki-z1.a(list.o)
                0x00006ecc                list_remove
 .any.text.list_push
                0x00006f00       0x16 contiki-z1.a(list.o)
                0x00006f00                list_push
 .any.text.list_add
                0x00006f16       0x26 contiki-z1.a(list.o)
                0x00006f16                list_add
 .any.text.list_length
                0x00006f3c       0x10 contiki-z1.a(list.o)
                0x00006f3c                list_length
 .any.text.list_item_next
                0x00006f4c        0xc contiki-z1.a(list.o)
                0x00006f4c                list_item_next
 .any.text.memb_init
                0x00006f58       0x36 contiki-z1.a(memb.o)
                0x00006f58                memb_init
 .any.text.memb_alloc
                0x00006f8e       0x3e contiki-z1.a(memb.o)
                0x00006f8e                memb_alloc
 .any.text.memb_free
                0x00006fcc       0x3a contiki-z1.a(memb.o)
                0x00006fcc                memb_free
 .any.text.memb_inmemb
                0x00007006       0x2a contiki-z1.a(memb.o)
                0x00007006                memb_inmemb
 .any.text.memb_numfree
                0x00007030       0x26 contiki-z1.a(memb.o)
                0x00007030                memb_numfree
 .any.text.random_rand
                0x00007056        0x6 contiki-z1.a(random.o)
                0x00007056                random_rand
 .any.text.set_packet_attrs
                0x0000705c       0x46 contiki-z1.a(sicslowpan.o)
 .any.text.addr_context_lookup_by_number
                0x000070a2       0x30 contiki-z1.a(sicslowpan.o)
 .any.text.compress_addr_64
                0x000070d2       0x9a contiki-z1.a(sicslowpan.o)
 .any.text.uncompress_addr
                0x0000716c       0x96 contiki-z1.a(sicslowpan.o)
 .any.text.input
                0x00007202      0x5e2 contiki-z1.a(sicslowpan.o)
 .any.text.sicslowpan_init
                0x000077e4       0x26 contiki-z1.a(sicslowpan.o)
                0x000077e4                sicslowpan_init
 .any.text.addr_context_lookup_by_prefix
                0x0000780a       0x4a contiki-z1.a(sicslowpan.o)
 .any.text.packet_sent
                0x00007854       0x22 contiki-z1.a(sicslowpan.o)
 .any.text.send_packet
                0x00007876       0x1a contiki-z1.a(sicslowpan.o)
 .any.text.output
                0x00007890      0x684 contiki-z1.a(sicslowpan.o)
 .any.text.chksum
                0x00007f14       0x32 contiki-z1.a(uip6.o)
 .any.text.upper_layer_chksum
                0x00007f46       0x56 contiki-z1.a(uip6.o)
 .any.text.ext_hdr_options_process
                0x00007f9c       0xc2 contiki-z1.a(uip6.o)
 .any.text.uip_add32
                0x0000805e       0x60 contiki-z1.a(uip6.o)
                0x0000805e                uip_add32
 .any.text.uip_add_rcv_nxt
                0x000080be       0x2e contiki-z1.a(uip6.o)
 .any.text.uip_icmp6chksum
                0x000080ec        0xa contiki-z1.a(uip6.o)
                0x000080ec                uip_icmp6chksum
 .any.text.uip_tcpchksum
                0x000080f6        0xa contiki-z1.a(uip6.o)
                0x000080f6                uip_tcpchksum
 .any.text.uip_udpchksum
                0x00008100        0xa contiki-z1.a(uip6.o)
                0x00008100                uip_udpchksum
 .any.text.uip_init
                0x0000810a       0x62 contiki-z1.a(uip6.o)
                0x0000810a                uip_init
 .any.text.remove_ext_hdr
                0x0000816c       0x54 contiki-z1.a(uip6.o)
                0x0000816c                remove_ext_hdr
 .any.text.uip_udp_new
                0x000081c0       0xb8 contiki-z1.a(uip6.o)
                0x000081c0                uip_udp_new
 .any.text.uip_unlisten
                0x00008278       0x2a contiki-z1.a(uip6.o)
                0x00008278                uip_unlisten
 .any.text.uip_process
                0x000082a2      0xdfe contiki-z1.a(uip6.o)
                0x000082a2                uip_process
 .any.text.uip_htonl
                0x000090a0       0x2a contiki-z1.a(uip6.o)
                0x000090a0                uip_htonl
 .any.text.uip_ds6_list_loop
                0x000090ca       0x66 contiki-z1.a(uip-ds6.o)
                0x000090ca                uip_ds6_list_loop
 .any.text.uip_ds6_prefix_add
                0x00009130       0x70 contiki-z1.a(uip-ds6.o)
                0x00009130                uip_ds6_prefix_add
 .any.text.uip_ds6_is_addr_onlink
                0x000091a0       0x42 contiki-z1.a(uip-ds6.o)
                0x000091a0                uip_ds6_is_addr_onlink
 .any.text.uip_ds6_addr_lookup
                0x000091e2       0x2a contiki-z1.a(uip-ds6.o)
                0x000091e2                uip_ds6_addr_lookup
 .any.text.uip_ds6_get_link_local
                0x0000920c       0x3e contiki-z1.a(uip-ds6.o)
                0x0000920c                uip_ds6_get_link_local
 .any.text.uip_ds6_maddr_add
                0x0000924a       0x48 contiki-z1.a(uip-ds6.o)
                0x0000924a                uip_ds6_maddr_add
 .any.text.uip_ds6_addr_add
                0x00009292       0xb4 contiki-z1.a(uip-ds6.o)
                0x00009292                uip_ds6_addr_add
 .any.text.uip_ds6_maddr_rm
                0x00009346        0xa contiki-z1.a(uip-ds6.o)
                0x00009346                uip_ds6_maddr_rm
 .any.text.uip_ds6_maddr_lookup
                0x00009350       0x2a contiki-z1.a(uip-ds6.o)
                0x00009350                uip_ds6_maddr_lookup
 .any.text.uip_ds6_addr_rm
                0x0000937a       0x54 contiki-z1.a(uip-ds6.o)
                0x0000937a                uip_ds6_addr_rm
 .any.text.uip_ds6_periodic
                0x000093ce       0x4a contiki-z1.a(uip-ds6.o)
                0x000093ce                uip_ds6_periodic
 .any.text.uip_ds6_set_addr_iid
                0x00009418       0x14 contiki-z1.a(uip-ds6.o)
                0x00009418                uip_ds6_set_addr_iid
 .any.text.get_match_length
                0x0000942c       0x3c contiki-z1.a(uip-ds6.o)
                0x0000942c                get_match_length
 .any.text.uip_ds6_select_src
                0x00009468       0x9a contiki-z1.a(uip-ds6.o)
                0x00009468                uip_ds6_select_src
 .any.text.uip_ds6_compute_reachable_time
                0x00009502       0x36 contiki-z1.a(uip-ds6.o)
                0x00009502                uip_ds6_compute_reachable_time
 .any.text.uip_ds6_init
                0x00009538      0x138 contiki-z1.a(uip-ds6.o)
                0x00009538                uip_ds6_init
 .any.text.uip_ds6_nbr_rm
                0x00009670       0x1a contiki-z1.a(uip-ds6-nbr.o)
                0x00009670                uip_ds6_nbr_rm
 .any.text.uip_ds6_neighbors_init
                0x0000968a        0xe contiki-z1.a(uip-ds6-nbr.o)
                0x0000968a                uip_ds6_neighbors_init
 .any.text.uip_ds6_nbr_add
                0x00009698       0x54 contiki-z1.a(uip-ds6-nbr.o)
                0x00009698                uip_ds6_nbr_add
 .any.text.uip_ds6_nbr_get_ll
                0x000096ec        0xc contiki-z1.a(uip-ds6-nbr.o)
                0x000096ec                uip_ds6_nbr_get_ll
 .any.text.uip_ds6_nbr_lookup
                0x000096f8       0x3e contiki-z1.a(uip-ds6-nbr.o)
                0x000096f8                uip_ds6_nbr_lookup
 .any.text.uip_ds6_nbr_ll_lookup
                0x00009736        0xc contiki-z1.a(uip-ds6-nbr.o)
                0x00009736                uip_ds6_nbr_ll_lookup
 .any.text.uip_ds6_nbr_ipaddr_from_lladdr
                0x00009742        0x6 contiki-z1.a(uip-ds6-nbr.o)
                0x00009742                uip_ds6_nbr_ipaddr_from_lladdr
 .any.text.uip_ds6_nbr_lladdr_from_ipaddr
                0x00009748       0x12 contiki-z1.a(uip-ds6-nbr.o)
                0x00009748                uip_ds6_nbr_lladdr_from_ipaddr
 .any.text.uip_ds6_link_neighbor_callback
                0x0000975a       0x26 contiki-z1.a(uip-ds6-nbr.o)
                0x0000975a                uip_ds6_link_neighbor_callback
 .any.text.uip_ds6_neighbor_periodic
                0x00009780      0x11e contiki-z1.a(uip-ds6-nbr.o)
                0x00009780                uip_ds6_neighbor_periodic
 .any.text.call_route_callback
                0x0000989e       0x40 contiki-z1.a(uip-ds6-route.o)
 .any.text.uip_ds6_route_init
                0x000098de       0x36 contiki-z1.a(uip-ds6-route.o)
                0x000098de                uip_ds6_route_init
 .any.text.uip_ds6_route_nexthop
                0x00009914       0x1a contiki-z1.a(uip-ds6-route.o)
                0x00009914                uip_ds6_route_nexthop
 .any.text.uip_ds6_route_head
                0x0000992e        0xa contiki-z1.a(uip-ds6-route.o)
                0x0000992e                uip_ds6_route_head
 .any.text.uip_ds6_route_next
                0x00009938        0xe contiki-z1.a(uip-ds6-route.o)
                0x00009938                uip_ds6_route_next
 .any.text.uip_ds6_route_lookup
                0x00009946       0x6e contiki-z1.a(uip-ds6-route.o)
                0x00009946                uip_ds6_route_lookup
 .any.text.uip_ds6_route_rm
                0x000099b4       0xa2 contiki-z1.a(uip-ds6-route.o)
                0x000099b4                uip_ds6_route_rm
 .any.text.rm_routelist
                0x00009a56       0x34 contiki-z1.a(uip-ds6-route.o)
 .any.text.rm_routelist_callback
                0x00009a8a        0x6 contiki-z1.a(uip-ds6-route.o)
 .any.text.uip_ds6_route_add
                0x00009a90       0xf8 contiki-z1.a(uip-ds6-route.o)
                0x00009a90                uip_ds6_route_add
 .any.text.uip_ds6_defrt_rm
                0x00009b88       0x44 contiki-z1.a(uip-ds6-route.o)
                0x00009b88                uip_ds6_defrt_rm
 .any.text.uip_ds6_defrt_lookup
                0x00009bcc       0x32 contiki-z1.a(uip-ds6-route.o)
                0x00009bcc                uip_ds6_defrt_lookup
 .any.text.uip_ds6_defrt_add
                0x00009bfe       0x68 contiki-z1.a(uip-ds6-route.o)
                0x00009bfe                uip_ds6_defrt_add
 .any.text.uip_ds6_defrt_choose
                0x00009c66       0x36 contiki-z1.a(uip-ds6-route.o)
                0x00009c66                uip_ds6_defrt_choose
 .any.text.uip_ds6_defrt_periodic
                0x00009c9c       0x38 contiki-z1.a(uip-ds6-route.o)
                0x00009c9c                uip_ds6_defrt_periodic
 .any.text.echo_reply_input
                0x00009cd4      0x108 contiki-z1.a(uip-icmp6.o)
 .any.text.echo_request_input
                0x00009ddc      0x128 contiki-z1.a(uip-icmp6.o)
 .any.text.uip_icmp6_input
                0x00009f04       0x44 contiki-z1.a(uip-icmp6.o)
                0x00009f04                uip_icmp6_input
 .any.text.uip_icmp6_register_input_handler
                0x00009f48        0xc contiki-z1.a(uip-icmp6.o)
                0x00009f48                uip_icmp6_register_input_handler
 .any.text.uip_icmp6_error_output
                0x00009f54      0x16c contiki-z1.a(uip-icmp6.o)
                0x00009f54                uip_icmp6_error_output
 .any.text.uip_icmp6_send
                0x0000a0c0       0x84 contiki-z1.a(uip-icmp6.o)
                0x0000a0c0                uip_icmp6_send
 .any.text.uip_icmp6_init
                0x0000a144       0x12 contiki-z1.a(uip-icmp6.o)
                0x0000a144                uip_icmp6_init
 .any.text.na_input
                0x0000a156      0x1a0 contiki-z1.a(uip-nd6.o)
 .any.text.ns_input
                0x0000a2f6      0x246 contiki-z1.a(uip-nd6.o)
 .any.text.uip_nd6_ns_output
                0x0000a53c      0x176 contiki-z1.a(uip-nd6.o)
                0x0000a53c                uip_nd6_ns_output
 .any.text.uip_nd6_init
                0x0000a6b2       0x12 contiki-z1.a(uip-nd6.o)
                0x0000a6b2                uip_nd6_init
 .any.text.start_periodic_tcp_timer
                0x0000a6c4       0x16 contiki-z1.a(tcpip.o)
 .any.text.tcpip_output
                0x0000a6da       0x10 contiki-z1.a(tcpip.o)
                0x0000a6da                tcpip_output
 .any.text.tcpip_set_outputfunc
                0x0000a6ea        0x6 contiki-z1.a(tcpip.o)
                0x0000a6ea                tcpip_set_outputfunc
 .any.text.udp_new
                0x0000a6f0       0x1a contiki-z1.a(tcpip.o)
                0x0000a6f0                udp_new
 .any.text.tcpip_input
                0x0000a70a       0x16 contiki-z1.a(tcpip.o)
                0x0000a70a                tcpip_input
 .any.text.tcpip_ipv6_output
                0x0000a720      0x14e contiki-z1.a(tcpip.o)
                0x0000a720                tcpip_ipv6_output
 .any.text.process_thread_tcpip_process
                0x0000a86e      0x1ba contiki-z1.a(tcpip.o)
 .any.text.tcpip_uipcall
                0x0000aa28       0x70 contiki-z1.a(tcpip.o)
                0x0000aa28                tcpip_uipcall
 .any.text.uip_debug_ipaddr_print
                0x0000aa98       0x72 contiki-z1.a(uip-debug.o)
                0x0000aa98                uip_debug_ipaddr_print
 .any.text.rpl_get_mode
                0x0000ab0a        0x6 contiki-z1.a(rpl.o)
                0x0000ab0a                rpl_get_mode
 .any.text.rpl_purge_routes
                0x0000ab10       0x96 contiki-z1.a(rpl.o)
                0x0000ab10                rpl_purge_routes
 .any.text.rpl_remove_routes
                0x0000aba6       0x22 contiki-z1.a(rpl.o)
                0x0000aba6                rpl_remove_routes
 .any.text.rpl_remove_routes_by_nexthop
                0x0000abc8       0x3e contiki-z1.a(rpl.o)
                0x0000abc8                rpl_remove_routes_by_nexthop
 .any.text.rpl_add_route
                0x0000ac06       0x48 contiki-z1.a(rpl.o)
                0x0000ac06                rpl_add_route
 .any.text.rpl_link_neighbor_callback
                0x0000ac4e       0x74 contiki-z1.a(rpl.o)
                0x0000ac4e                rpl_link_neighbor_callback
 .any.text.rpl_ipv6_neighbor_callback
                0x0000acc2       0x1e contiki-z1.a(rpl.o)
                0x0000acc2                rpl_ipv6_neighbor_callback
 .any.text.rpl_init
                0x0000ace0       0x4a contiki-z1.a(rpl.o)
                0x0000ace0                rpl_init
 .any.text.lollipop_greater_than
                0x0000ad2a       0x3c contiki-z1.a(rpl-dag.o)
 .any.text.find_parent_any_dag_any_instance
                0x0000ad66       0x14 contiki-z1.a(rpl-dag.o)
 .any.text.rpl_set_preferred_parent
                0x0000ad7a       0x2c contiki-z1.a(rpl-dag.o)
 .any.text.set_ip_from_prefix
                0x0000ada6       0x30 contiki-z1.a(rpl-dag.o)
 .any.text.check_prefix
                0x0000add6       0x70 contiki-z1.a(rpl-dag.o)
 .any.text.rpl_get_nbr
                0x0000ae46       0x1e contiki-z1.a(rpl-dag.o)
                0x0000ae46                rpl_get_nbr
 .any.text.rpl_dag_init
                0x0000ae64        0xe contiki-z1.a(rpl-dag.o)
                0x0000ae64                rpl_dag_init
 .any.text.rpl_get_parent
                0x0000ae72        0xc contiki-z1.a(rpl-dag.o)
                0x0000ae72                rpl_get_parent
 .any.text.rpl_get_parent_ipaddr
                0x0000ae7e       0x10 contiki-z1.a(rpl-dag.o)
                0x0000ae7e                rpl_get_parent_ipaddr
 .any.text.rpl_set_prefix
                0x0000ae8e       0x74 contiki-z1.a(rpl-dag.o)
                0x0000ae8e                rpl_set_prefix
 .any.text.rpl_set_default_route
                0x0000af02       0x60 contiki-z1.a(rpl-dag.o)
                0x0000af02                rpl_set_default_route
 .any.text.rpl_alloc_instance
                0x0000af62       0x34 contiki-z1.a(rpl-dag.o)
                0x0000af62                rpl_alloc_instance
 .any.text.rpl_add_parent
                0x0000af96       0x4e contiki-z1.a(rpl-dag.o)
                0x0000af96                rpl_add_parent
 .any.text.rpl_find_parent
                0x0000afe4       0x1c contiki-z1.a(rpl-dag.o)
                0x0000afe4                rpl_find_parent
 .any.text.rpl_find_parent_any_dag
                0x0000b000       0x24 contiki-z1.a(rpl-dag.o)
                0x0000b000                rpl_find_parent_any_dag
 .any.text.rpl_select_parent
                0x0000b024       0x76 contiki-z1.a(rpl-dag.o)
                0x0000b024                rpl_select_parent
 .any.text.rpl_select_dag
                0x0000b09a      0x196 contiki-z1.a(rpl-dag.o)
                0x0000b09a                rpl_select_dag
 .any.text.rpl_nullify_parent
                0x0000b230       0x50 contiki-z1.a(rpl-dag.o)
                0x0000b230                rpl_nullify_parent
 .any.text.rpl_remove_parent
                0x0000b280       0x16 contiki-z1.a(rpl-dag.o)
                0x0000b280                rpl_remove_parent
 .any.text.nbr_callback
                0x0000b296        0x6 contiki-z1.a(rpl-dag.o)
 .any.text.remove_parents.constprop.5
                0x0000b29c       0x2e contiki-z1.a(rpl-dag.o)
 .any.text.rpl_move_parent
                0x0000b2ca       0x52 contiki-z1.a(rpl-dag.o)
                0x0000b2ca                rpl_move_parent
 .any.text.rpl_get_any_dag
                0x0000b31c       0x16 contiki-z1.a(rpl-dag.o)
                0x0000b31c                rpl_get_any_dag
 .any.text.rpl_get_instance
                0x0000b332       0x16 contiki-z1.a(rpl-dag.o)
                0x0000b332                rpl_get_instance
 .any.text.rpl_alloc_dag
                0x0000b348       0x60 contiki-z1.a(rpl-dag.o)
                0x0000b348                rpl_alloc_dag
 .any.text.rpl_repair_root
                0x0000b3a8       0x4c contiki-z1.a(rpl-dag.o)
                0x0000b3a8                rpl_repair_root
 .any.text.rpl_find_of
                0x0000b3f4       0x10 contiki-z1.a(rpl-dag.o)
                0x0000b3f4                rpl_find_of
 .any.text.rpl_join_instance
                0x0000b404      0x128 contiki-z1.a(rpl-dag.o)
                0x0000b404                rpl_join_instance
 .any.text.rpl_local_repair
                0x0000b52c       0x68 contiki-z1.a(rpl-dag.o)
                0x0000b52c                rpl_local_repair
 .any.text.rpl_process_parent_event
                0x0000b594       0x6c contiki-z1.a(rpl-dag.o)
                0x0000b594                rpl_process_parent_event
 .any.text.rpl_recalculate_ranks
                0x0000b600       0x46 contiki-z1.a(rpl-dag.o)
                0x0000b600                rpl_recalculate_ranks
 .any.text.rpl_add_dag
                0x0000b646      0x102 contiki-z1.a(rpl-dag.o)
                0x0000b646                rpl_add_dag
 .any.text.rpl_process_dio
                0x0000b748      0x2e0 contiki-z1.a(rpl-dag.o)
                0x0000b748                rpl_process_dio
 .any.text.rpl_lock_parent
                0x0000ba28        0xc contiki-z1.a(rpl-dag.o)
                0x0000ba28                rpl_lock_parent
 .any.text.rpl_verify_header
                0x0000ba34       0xae contiki-z1.a(rpl-ext-header.)
                0x0000ba34                rpl_verify_header
 .any.text.rpl_update_header_empty
                0x0000bae2      0x12a contiki-z1.a(rpl-ext-header.)
                0x0000bae2                rpl_update_header_empty
 .any.text.rpl_update_header_final
                0x0000bc0c       0x90 contiki-z1.a(rpl-ext-header.)
                0x0000bc0c                rpl_update_header_final
 .any.text.rpl_invert_header
                0x0000bc9c       0x74 contiki-z1.a(rpl-ext-header.)
                0x0000bc9c                rpl_invert_header
 .any.text.rpl_insert_header
                0x0000bd10       0x12 contiki-z1.a(rpl-ext-header.)
                0x0000bd10                rpl_insert_header
 .any.text.get32
                0x0000bd22       0x3e contiki-z1.a(rpl-icmp6.o)
 .any.text.set32
                0x0000bd60       0x2a contiki-z1.a(rpl-icmp6.o)
 .any.text.get16
                0x0000bd8a        0xe contiki-z1.a(rpl-icmp6.o)
 .any.text.set16
                0x0000bd98       0x10 contiki-z1.a(rpl-icmp6.o)
 .any.text.dao_ack_input
                0x0000bda8        0x6 contiki-z1.a(rpl-icmp6.o)
 .any.text.dio_input
                0x0000bdae      0x2b0 contiki-z1.a(rpl-icmp6.o)
 .any.text.dis_output
                0x0000c05e       0x50 contiki-z1.a(rpl-icmp6.o)
                0x0000c05e                dis_output
 .any.text.dio_output
                0x0000c0ae      0x242 contiki-z1.a(rpl-icmp6.o)
                0x0000c0ae                dio_output
 .any.text.dis_input
                0x0000c2f0       0x28 contiki-z1.a(rpl-icmp6.o)
 .any.text.dao_output_target
                0x0000c318       0xd0 contiki-z1.a(rpl-icmp6.o)
                0x0000c318                dao_output_target
 .any.text.dao_output
                0x0000c3e8       0x68 contiki-z1.a(rpl-icmp6.o)
                0x0000c3e8                dao_output
 .any.text.dao_ack_output
                0x0000c450       0x32 contiki-z1.a(rpl-icmp6.o)
                0x0000c450                dao_ack_output
 .any.text.dao_input
                0x0000c482      0x288 contiki-z1.a(rpl-icmp6.o)
 .any.text.rpl_icmp6_register_handlers
                0x0000c70a       0x22 contiki-z1.a(rpl-icmp6.o)
                0x0000c70a                rpl_icmp6_register_handlers
 .any.text.reset
                0x0000c72c        0x2 contiki-z1.a(rpl-mrhof.o)
 .any.text.update_metric_container
                0x0000c72e        0x6 contiki-z1.a(rpl-mrhof.o)
 .any.text.calculate_rank
                0x0000c734       0x3e contiki-z1.a(rpl-mrhof.o)
 .any.text.neighbor_link_callback
                0x0000c772       0x8c contiki-z1.a(rpl-mrhof.o)
 .any.text.best_dag
                0x0000c7fe       0x2e contiki-z1.a(rpl-mrhof.o)
 .any.text.best_parent
                0x0000c82c       0x68 contiki-z1.a(rpl-mrhof.o)
 .any.text.new_dio_interval
                0x0000c894       0x8a contiki-z1.a(rpl-timers.o)
 .any.text.set_dao_lifetime_timer
                0x0000c91e       0x66 contiki-z1.a(rpl-timers.o)
 .any.text.handle_periodic_timer
                0x0000c984       0x2e contiki-z1.a(rpl-timers.o)
 .any.text.schedule_dao
                0x0000c9b2       0x72 contiki-z1.a(rpl-timers.o)
 .any.text.handle_dio_timer
                0x0000ca24       0x88 contiki-z1.a(rpl-timers.o)
 .any.text.handle_dao_timer
                0x0000caac       0x64 contiki-z1.a(rpl-timers.o)
 .any.text.rpl_reset_periodic_timer
                0x0000cb10       0x54 contiki-z1.a(rpl-timers.o)
                0x0000cb10                rpl_reset_periodic_timer
 .any.text.rpl_reset_dio_timer
                0x0000cb64       0x18 contiki-z1.a(rpl-timers.o)
                0x0000cb64                rpl_reset_dio_timer
 .any.text.rpl_schedule_dao
                0x0000cb7c        0xc contiki-z1.a(rpl-timers.o)
                0x0000cb7c                rpl_schedule_dao
 .any.text.rpl_schedule_probing
                0x0000cb88       0x34 contiki-z1.a(rpl-timers.o)
                0x0000cb88                rpl_schedule_probing
 .any.text.handle_probing_timer
                0x0000cbbc      0x112 contiki-z1.a(rpl-timers.o)
 .any.text.linkaddr_copy
                0x0000ccce        0x8 contiki-z1.a(linkaddr.o)
                0x0000ccce                linkaddr_copy
 .any.text.linkaddr_cmp
                0x0000ccd6       0x12 contiki-z1.a(linkaddr.o)
                0x0000ccd6                linkaddr_cmp
 .any.text.linkaddr_set_node_addr
                0x0000cce8        0xc contiki-z1.a(linkaddr.o)
                0x0000cce8                linkaddr_set_node_addr
 .any.text.item_from_index
                0x0000ccf4       0x2a contiki-z1.a(nbr-table.o)
 .any.text.index_from_key
                0x0000cd1e       0x26 contiki-z1.a(nbr-table.o)
 .any.text.index_from_item
                0x0000cd44       0x1e contiki-z1.a(nbr-table.o)
 .any.text.nbr_set_bit
                0x0000cd62       0x50 contiki-z1.a(nbr-table.o)
 .any.text.index_from_lladdr
                0x0000cdb2       0x3e contiki-z1.a(nbr-table.o)
 .any.text.nbr_get_bit.constprop.0
                0x0000cdf0       0x2c contiki-z1.a(nbr-table.o)
 .any.text.nbr_table_register
                0x0000ce1c       0x26 contiki-z1.a(nbr-table.o)
                0x0000ce1c                nbr_table_register
 .any.text.nbr_table_next
                0x0000ce42       0x4c contiki-z1.a(nbr-table.o)
                0x0000ce42                nbr_table_next
 .any.text.nbr_table_head
                0x0000ce8e       0x36 contiki-z1.a(nbr-table.o)
                0x0000ce8e                nbr_table_head
 .any.text.nbr_table_add_lladdr
                0x0000cec4      0x110 contiki-z1.a(nbr-table.o)
                0x0000cec4                nbr_table_add_lladdr
 .any.text.nbr_table_get_from_lladdr
                0x0000cfd4       0x28 contiki-z1.a(nbr-table.o)
                0x0000cfd4                nbr_table_get_from_lladdr
 .any.text.nbr_table_remove
                0x0000cffc       0x2a contiki-z1.a(nbr-table.o)
                0x0000cffc                nbr_table_remove
 .any.text.nbr_table_lock
                0x0000d026       0x10 contiki-z1.a(nbr-table.o)
                0x0000d026                nbr_table_lock
 .any.text.nbr_table_unlock
                0x0000d036       0x10 contiki-z1.a(nbr-table.o)
                0x0000d036                nbr_table_unlock
 .any.text.nbr_table_get_lladdr
                0x0000d046       0x20 contiki-z1.a(nbr-table.o)
                0x0000d046                nbr_table_get_lladdr
 .any.text.packetbuf_compact
                0x0000d066       0x2e contiki-z1.a(packetbuf.o)
                0x0000d066                packetbuf_compact
 .any.text.packetbuf_copyto
                0x0000d094       0x46 contiki-z1.a(packetbuf.o)
                0x0000d094                packetbuf_copyto
 .any.text.packetbuf_hdrreduce
                0x0000d0da       0x1a contiki-z1.a(packetbuf.o)
                0x0000d0da                packetbuf_hdrreduce
 .any.text.packetbuf_set_datalen
                0x0000d0f4        0x6 contiki-z1.a(packetbuf.o)
                0x0000d0f4                packetbuf_set_datalen
 .any.text.packetbuf_dataptr
                0x0000d0fa        0xe contiki-z1.a(packetbuf.o)
                0x0000d0fa                packetbuf_dataptr
 .any.text.packetbuf_hdrptr
                0x0000d108        0xa contiki-z1.a(packetbuf.o)
                0x0000d108                packetbuf_hdrptr
 .any.text.packetbuf_datalen
                0x0000d112        0x6 contiki-z1.a(packetbuf.o)
                0x0000d112                packetbuf_datalen
 .any.text.packetbuf_hdrlen
                0x0000d118       0x10 contiki-z1.a(packetbuf.o)
                0x0000d118                packetbuf_hdrlen
 .any.text.packetbuf_totlen
                0x0000d128        0xc contiki-z1.a(packetbuf.o)
                0x0000d128                packetbuf_totlen
 .any.text.packetbuf_hdralloc
                0x0000d134       0x2a contiki-z1.a(packetbuf.o)
                0x0000d134                packetbuf_hdralloc
 .any.text.packetbuf_attr_clear
                0x0000d15e       0x28 contiki-z1.a(packetbuf.o)
                0x0000d15e                packetbuf_attr_clear
 .any.text.packetbuf_clear
                0x0000d186       0x1a contiki-z1.a(packetbuf.o)
                0x0000d186                packetbuf_clear
 .any.text.packetbuf_copyfrom
                0x0000d1a0       0x2a contiki-z1.a(packetbuf.o)
                0x0000d1a0                packetbuf_copyfrom
 .any.text.packetbuf_attr_copyto
                0x0000d1ca       0x22 contiki-z1.a(packetbuf.o)
                0x0000d1ca                packetbuf_attr_copyto
 .any.text.packetbuf_attr_copyfrom
                0x0000d1ec       0x24 contiki-z1.a(packetbuf.o)
                0x0000d1ec                packetbuf_attr_copyfrom
 .any.text.packetbuf_holds_broadcast
                0x0000d210        0xe contiki-z1.a(packetbuf.o)
                0x0000d210                packetbuf_holds_broadcast
 .any.text.queuebuf_init
                0x0000d21e       0x12 contiki-z1.a(queuebuf.o)
                0x0000d21e                queuebuf_init
 .any.text.queuebuf_numfree
                0x0000d230        0xa contiki-z1.a(queuebuf.o)
                0x0000d230                queuebuf_numfree
 .any.text.queuebuf_new_from_packetbuf
                0x0000d23a       0x4e contiki-z1.a(queuebuf.o)
                0x0000d23a                queuebuf_new_from_packetbuf
 .any.text.queuebuf_free
                0x0000d288       0x2a contiki-z1.a(queuebuf.o)
                0x0000d288                queuebuf_free
 .any.text.queuebuf_to_packetbuf
                0x0000d2b2       0x32 contiki-z1.a(queuebuf.o)
                0x0000d2b2                queuebuf_to_packetbuf
 .any.text.create_frame.isra.0
                0x0000d2e4      0x104 contiki-z1.a(framer-802154.o)
 .any.text.create
                0x0000d3e8        0x8 contiki-z1.a(framer-802154.o)
 .any.text.hdr_length
                0x0000d3f0        0x8 contiki-z1.a(framer-802154.o)
 .any.text.parse
                0x0000d3f8       0xa2 contiki-z1.a(framer-802154.o)
 .any.text.framer_canonical_create_and_secure
                0x0000d49a       0x20 contiki-z1.a(framer.o)
                0x0000d49a                framer_canonical_create_and_secure
 .any.text.send_packet
                0x0000d4ba        0x6 contiki-z1.a(nullmac.o)
 .any.text.packet_input
                0x0000d4c0        0x6 contiki-z1.a(nullmac.o)
 .any.text.on   0x0000d4c6        0x6 contiki-z1.a(nullmac.o)
 .any.text.off  0x0000d4cc        0x6 contiki-z1.a(nullmac.o)
 .any.text.channel_check_interval
                0x0000d4d2        0x4 contiki-z1.a(nullmac.o)
 .any.text.init
                0x0000d4d6        0x2 contiki-z1.a(nullmac.o)
 .any.text.on   0x0000d4d8        0x6 contiki-z1.a(nullrdc.o)
 .any.text.channel_check_interval
                0x0000d4de        0x4 contiki-z1.a(nullrdc.o)
 .any.text.init
                0x0000d4e2        0x6 contiki-z1.a(nullrdc.o)
 .any.text.off  0x0000d4e8       0x10 contiki-z1.a(nullrdc.o)
 .any.text.packet_input
                0x0000d4f8       0x28 contiki-z1.a(nullrdc.o)
 .any.text.send_one_packet
                0x0000d520       0x62 contiki-z1.a(nullrdc.o)
 .any.text.send_list
                0x0000d582       0x28 contiki-z1.a(nullrdc.o)
 .any.text.send_packet
                0x0000d5aa        0x6 contiki-z1.a(nullrdc.o)
 .any.text.bootstrap
                0x0000d5b0        0x4 contiki-z1.a(nullsec.o)
 .any.text.send
                0x0000d5b4        0xa contiki-z1.a(nullsec.o)
 .any.text.on_frame_created
                0x0000d5be        0x4 contiki-z1.a(nullsec.o)
 .any.text.input
                0x0000d5c2        0x6 contiki-z1.a(nullsec.o)
 .any.text.get_overhead
                0x0000d5c8        0x4 contiki-z1.a(nullsec.o)
 .any.text.coap_parse_int_option
                0x0000d5cc       0x36 contiki-z1.a(er-coap.o)
 .any.text.coap_get_variable
                0x0000d602       0x78 contiki-z1.a(er-coap.o)
 .any.text.coap_merge_multi_option
                0x0000d67a       0x3a contiki-z1.a(er-coap.o)
 .any.text.coap_set_option_header
                0x0000d6b4       0x98 contiki-z1.a(er-coap.o)
 .any.text.coap_serialize_int_option
                0x0000d74c       0xbe contiki-z1.a(er-coap.o)
 .any.text.coap_serialize_array_option.part.0
                0x0000d80a       0x28 contiki-z1.a(er-coap.o)
 .any.text.coap_serialize_array_option
                0x0000d832       0x82 contiki-z1.a(er-coap.o)
 .any.text.coap_init_connection
                0x0000d8b4       0x22 contiki-z1.a(er-coap.o)
                0x0000d8b4                coap_init_connection
 .any.text.coap_get_mid
                0x0000d8d6        0xc contiki-z1.a(er-coap.o)
                0x0000d8d6                coap_get_mid
 .any.text.coap_init_message
                0x0000d8e2       0x24 contiki-z1.a(er-coap.o)
                0x0000d8e2                coap_init_message
 .any.text.coap_serialize_message
                0x0000d906      0x3ba contiki-z1.a(er-coap.o)
                0x0000d906                coap_serialize_message
 .any.text.coap_send_message
                0x0000dcc0       0x3e contiki-z1.a(er-coap.o)
                0x0000dcc0                coap_send_message
 .any.text.coap_parse_message
                0x0000dcfe      0x468 contiki-z1.a(er-coap.o)
                0x0000dcfe                coap_parse_message
 .any.text.coap_get_query_variable
                0x0000e166       0x1c contiki-z1.a(er-coap.o)
                0x0000e166                coap_get_query_variable
 .any.text.coap_get_post_variable
                0x0000e182       0x20 contiki-z1.a(er-coap.o)
                0x0000e182                coap_get_post_variable
 .any.text.coap_set_status_code
                0x0000e1a2       0x12 contiki-z1.a(er-coap.o)
                0x0000e1a2                coap_set_status_code
 .any.text.coap_set_token
                0x0000e1b4       0x24 contiki-z1.a(er-coap.o)
                0x0000e1b4                coap_set_token
 .any.text.coap_get_header_content_format
                0x0000e1d8       0x16 contiki-z1.a(er-coap.o)
                0x0000e1d8                coap_get_header_content_format
 .any.text.coap_set_header_content_format
                0x0000e1ee        0xe contiki-z1.a(er-coap.o)
                0x0000e1ee                coap_set_header_content_format
 .any.text.coap_get_header_accept
                0x0000e1fc       0x14 contiki-z1.a(er-coap.o)
                0x0000e1fc                coap_get_header_accept
 .any.text.coap_get_header_max_age
                0x0000e210       0x24 contiki-z1.a(er-coap.o)
                0x0000e210                coap_get_header_max_age
 .any.text.coap_set_header_max_age
                0x0000e234       0x12 contiki-z1.a(er-coap.o)
                0x0000e234                coap_set_header_max_age
 .any.text.coap_set_header_etag
                0x0000e246       0x2a contiki-z1.a(er-coap.o)
                0x0000e246                coap_set_header_etag
 .any.text.coap_get_header_if_match
                0x0000e270       0x1a contiki-z1.a(er-coap.o)
                0x0000e270                coap_get_header_if_match
 .any.text.coap_get_header_if_none_match
                0x0000e28a        0xc contiki-z1.a(er-coap.o)
                0x0000e28a                coap_get_header_if_none_match
 .any.text.coap_get_header_uri_host
                0x0000e296       0x16 contiki-z1.a(er-coap.o)
                0x0000e296                coap_get_header_uri_host
 .any.text.coap_get_header_uri_path
                0x0000e2ac       0x16 contiki-z1.a(er-coap.o)
                0x0000e2ac                coap_get_header_uri_path
 .any.text.coap_get_header_uri_query
                0x0000e2c2       0x16 contiki-z1.a(er-coap.o)
                0x0000e2c2                coap_get_header_uri_query
 .any.text.coap_set_header_location_query
                0x0000e2d8       0x2c contiki-z1.a(er-coap.o)
                0x0000e2d8                coap_set_header_location_query
 .any.text.coap_set_header_location_path
                0x0000e304       0x5a contiki-z1.a(er-coap.o)
                0x0000e304                coap_set_header_location_path
 .any.text.coap_set_header_observe
                0x0000e35e       0x12 contiki-z1.a(er-coap.o)
                0x0000e35e                coap_set_header_observe
 .any.text.coap_get_header_block2
                0x0000e370       0x4c contiki-z1.a(er-coap.o)
                0x0000e370                coap_get_header_block2
 .any.text.coap_set_header_block2
                0x0000e3bc       0x42 contiki-z1.a(er-coap.o)
                0x0000e3bc                coap_set_header_block2
 .any.text.coap_get_header_size2
                0x0000e3fe       0x1c contiki-z1.a(er-coap.o)
                0x0000e3fe                coap_get_header_size2
 .any.text.coap_set_header_size2
                0x0000e41a       0x12 contiki-z1.a(er-coap.o)
                0x0000e41a                coap_set_header_size2
 .any.text.coap_get_payload
                0x0000e42c       0x1a contiki-z1.a(er-coap.o)
                0x0000e42c                coap_get_payload
 .any.text.coap_set_payload
                0x0000e446       0x16 contiki-z1.a(er-coap.o)
                0x0000e446                coap_set_payload
 .any.text.i2c_receiveinit
                0x0000e45c       0x36 contiki-z1.a(i2cmaster.o)
                0x0000e45c                i2c_receiveinit
 .any.text.i2c_transmitinit
                0x0000e492       0x30 contiki-z1.a(i2cmaster.o)
                0x0000e492                i2c_transmitinit
 .any.text.i2c_receive_n
                0x0000e4c2       0x3e contiki-z1.a(i2cmaster.o)
                0x0000e4c2                i2c_receive_n
 .any.text.i2c_busy
                0x0000e500        0xa contiki-z1.a(i2cmaster.o)
                0x0000e500                i2c_busy
 .any.text.i2c_enable
                0x0000e50a       0x22 contiki-z1.a(i2cmaster.o)
                0x0000e50a                i2c_enable
 .any.text.i2c_transmit_n
                0x0000e52c       0x14 contiki-z1.a(i2cmaster.o)
                0x0000e52c                i2c_transmit_n
 .any.text.stimer_set
                0x0000e540       0x1c contiki-z1.a(stimer.o)
                0x0000e540                stimer_set
 .any.text.stimer_expired
                0x0000e55c       0x30 contiki-z1.a(stimer.o)
                0x0000e55c                stimer_expired
 .any.text.uip_udp_packet_send
                0x0000e58c       0x2e contiki-z1.a(uip-udp-packet.)
                0x0000e58c                uip_udp_packet_send
 .any.text.field_len
                0x0000e5ba       0x8c contiki-z1.a(frame802154.o)
 .any.text.frame802154_hdrlen
                0x0000e646       0x2e contiki-z1.a(frame802154.o)
                0x0000e646                frame802154_hdrlen
 .any.text.frame802154_create
                0x0000e674      0x112 contiki-z1.a(frame802154.o)
                0x0000e674                frame802154_create
 .any.text.frame802154_parse
                0x0000e786      0x16c contiki-z1.a(frame802154.o)
                0x0000e786                frame802154_parse
 .any.text.mac_call_sent_callback
                0x0000e8f2       0x14 contiki-z1.a(mac.o)
                0x0000e8f2                mac_call_sent_callback

.rodata         0x0000e908      0x55b
                0x0000e908                . = ALIGN (0x2)
 *(.rodata .rodata.* .gnu.linkonce.r.*)
 .rodata.process_thread_server
                0x0000e908        0x8 coap-server.co
 .rodata.post_handler
                0x0000e910       0x2d coap-server.co
 .rodata.get_handler
                0x0000e93d       0x1b coap-server.co
 .rodata.autostart_processes
                0x0000e958        0x4 coap-server.co
                0x0000e958                autostart_processes
 .rodata        0x0000e95c       0x27 coap-server.co
 .rodata        0x0000e983      0x115 obj_z1/contiki-z1-main.o
 .rodata.process_thread_coap_engine
                0x0000ea98       0x52 contiki-z1.a(er-coap-engine.)
 .rodata        0x0000eaea       0x14 contiki-z1.a(er-coap-engine.)
 .rodata.coap_rest_implementation
                0x0000eafe       0xb6 contiki-z1.a(er-coap-engine.)
                0x0000eafe                coap_rest_implementation
 .rodata.coap_observe_handler
                0x0000ebb4       0x11 contiki-z1.a(er-coap-observe)
 .rodata.well_known_core_get_handler
                0x0000ebc5       0x13 contiki-z1.a(er-coap-res-wel)
 .rodata        0x0000ebd8        0x6 contiki-z1.a(er-coap-res-wel)
 .rodata        0x0000ebde        0xc contiki-z1.a(rest-engine.o)
 *fill*         0x0000ebea        0x2 00
 .rodata.get_value
                0x0000ebec       0x38 contiki-z1.a(cc2420.o)
 .rodata.cc2420_driver
                0x0000ec24       0x38 contiki-z1.a(cc2420.o)
                0x0000ec24                cc2420_driver
 .rodata        0x0000ec5c        0xe contiki-z1.a(cc2420.o)
 .rodata.output_power
                0x0000ec6a       0x10 contiki-z1.a(cc2420.o)
 .rodata        0x0000ec7a        0x8 contiki-z1.a(sensors.o)
 .rodata        0x0000ec82        0x7 contiki-z1.a(button-sensor.o)
 *fill*         0x0000ec89        0x1 00
 .rodata.button_sensor
                0x0000ec8a        0xe contiki-z1.a(button-sensor.o)
                0x0000ec8a                button_sensor
 .rodata        0x0000ec98       0x16 contiki-z1.a(adxl345.o)
 .rodata        0x0000ecae        0xf contiki-z1.a(ctimer.o)
 .rodata        0x0000ecbd        0xc contiki-z1.a(etimer.o)
 .rodata        0x0000ecc9        0xb contiki-z1.a(sicslowpan.o)
 .rodata.sicslowpan_driver
                0x0000ecd4        0xa contiki-z1.a(sicslowpan.o)
                0x0000ecd4                sicslowpan_driver
 .rodata.llprefix
                0x0000ecde        0x2 contiki-z1.a(sicslowpan.o)
                0x0000ecde                llprefix
 .rodata.unc_mxconf
                0x0000ece0        0x4 contiki-z1.a(sicslowpan.o)
                0x0000ece0                unc_mxconf
 .rodata.unc_ctxconf
                0x0000ece4        0x4 contiki-z1.a(sicslowpan.o)
                0x0000ece4                unc_ctxconf
 .rodata.unc_llconf
                0x0000ece8        0x4 contiki-z1.a(sicslowpan.o)
                0x0000ece8                unc_llconf
 .rodata.ttl_values
                0x0000ecec        0x4 contiki-z1.a(sicslowpan.o)
 .rodata.uip_process
                0x0000ecf0       0x40 contiki-z1.a(uip6.o)
 .rodata        0x0000ed30        0xd contiki-z1.a(tcpip.o)
 .rodata.uip_debug_ipaddr_print
                0x0000ed3d       0x15 contiki-z1.a(uip-debug.o)
 .rodata.linkaddr_null
                0x0000ed52        0x8 contiki-z1.a(linkaddr.o)
                0x0000ed52                linkaddr_null
 .rodata.framer_802154
                0x0000ed5a       0x10 contiki-z1.a(framer-802154.o)
                0x0000ed5a                framer_802154
 .rodata        0x0000ed6a        0x8 contiki-z1.a(nullmac.o)
 .rodata.nullmac_driver
                0x0000ed72       0x1a contiki-z1.a(nullmac.o)
                0x0000ed72                nullmac_driver
 .rodata        0x0000ed8c        0x8 contiki-z1.a(nullrdc.o)
 .rodata.nullrdc_driver
                0x0000ed94       0x1e contiki-z1.a(nullrdc.o)
                0x0000ed94                nullrdc_driver
 .rodata        0x0000edb2        0x8 contiki-z1.a(nullsec.o)
 .rodata.nullsec_driver
                0x0000edba       0x16 contiki-z1.a(nullsec.o)
                0x0000edba                nullsec_driver
 .rodata.coap_serialize_message
                0x0000edd0       0x2f contiki-z1.a(er-coap.o)
 .rodata.coap_parse_message
                0x0000edff       0x5a contiki-z1.a(er-coap.o)
 .rodata        0x0000ee59        0x1 contiki-z1.a(er-coap.o)
 .rodata.CSWTCH.5
                0x0000ee5a        0x2 contiki-z1.a(frame802154.o)
 .rodata.vuprintf
                0x0000ee5c        0x7 /usr/local/msp430/bin/../lib/gcc/msp430/4.7.0/../../../../msp430/lib/mcpu-430x/mmpy-16/msr20/mc20/libc.a(vuprintf.o)
 *(.near.rodata .near.rodata.*)
                0x0000ee64                . = ALIGN (0x2)
                0x0000ee64                _etext = .

.data           0x00001100      0x186 load address 0x0000ee64
                0x00001100                . = ALIGN (0x2)
                0x00001100                __data_start = .
 *(.data .data.* .gnu.linkonce.d.*)
 .data.server   0x00001100        0xc coap-server.co
                0x00001100                server
 .data.resource_example
                0x0000110c       0x1c coap-server.co
                0x0000110c                resource_example
 .data.sensors  0x00001128        0x4 obj_z1/contiki-z1-main.o
                0x00001128                sensors
 .data.coap_engine
                0x0000112c        0xc contiki-z1.a(er-coap-engine.)
                0x0000112c                coap_engine
 .data.transactions_memb
                0x00001138        0x8 contiki-z1.a(er-coap-transac)
 .data.observers_memb
                0x00001140        0x8 contiki-z1.a(er-coap-observe)
 .data.res_well_known_core
                0x00001148       0x1c contiki-z1.a(er-coap-res-wel)
                0x00001148                res_well_known_core
 .data.rest_engine_process
                0x00001164        0xc contiki-z1.a(rest-engine.o)
                0x00001164                rest_engine_process
 .data.cur_break
                0x00001170        0x2 contiki-z1.a(msp430.o)
 .data.cc2420_process
                0x00001172        0xc contiki-z1.a(cc2420.o)
                0x00001172                cc2420_process
 .data.sensors_process
                0x0000117e        0xc contiki-z1.a(sensors.o)
                0x0000117e                sensors_process
 .data.accmeter_process
                0x0000118a        0xc contiki-z1.a(adxl345.o)
                0x0000118a                accmeter_process
 .data.adxl345_default_settings
                0x00001196       0x16 contiki-z1.a(adxl345.o)
 .data.ctimer_process
                0x000011ac        0xc contiki-z1.a(ctimer.o)
                0x000011ac                ctimer_process
 .data.etimer_process
                0x000011b8        0xc contiki-z1.a(etimer.o)
                0x000011b8                etimer_process
 .data.ds6_neighbors
                0x000011c4        0x2 contiki-z1.a(uip-ds6-nbr.o)
                0x000011c4                ds6_neighbors
 .data.ds6_neighbors_struct
                0x000011c6        0xa contiki-z1.a(uip-ds6-nbr.o)
 .data.routememb
                0x000011d0        0x8 contiki-z1.a(uip-ds6-route.o)
 .data.defaultroutermemb
                0x000011d8        0x8 contiki-z1.a(uip-ds6-route.o)
 .data.nbr_routes_struct
                0x000011e0        0xa contiki-z1.a(uip-ds6-route.o)
 .data.neighborroutememb
                0x000011ea        0x8 contiki-z1.a(uip-ds6-route.o)
 .data.echo_request_handler
                0x000011f2        0x8 contiki-z1.a(uip-icmp6.o)
 .data.echo_reply_handler
                0x000011fa        0x8 contiki-z1.a(uip-icmp6.o)
 .data.ns_input_handler
                0x00001202        0x8 contiki-z1.a(uip-nd6.o)
 .data.na_input_handler
                0x0000120a        0x8 contiki-z1.a(uip-nd6.o)
 .data.tcpip_process
                0x00001212        0xc contiki-z1.a(tcpip.o)
                0x00001212                tcpip_process
 .data.rpl_parents
                0x0000121e        0x2 contiki-z1.a(rpl-dag.o)
                0x0000121e                rpl_parents
 .data.rpl_parents_struct
                0x00001220        0xa contiki-z1.a(rpl-dag.o)
 .data.dao_sequence
                0x0000122a        0x1 contiki-z1.a(rpl-icmp6.o)
 *fill*         0x0000122b        0x1 00
 .data.dis_handler
                0x0000122c        0x8 contiki-z1.a(rpl-icmp6.o)
 .data.dio_handler
                0x00001234        0x8 contiki-z1.a(rpl-icmp6.o)
 .data.dao_handler
                0x0000123c        0x8 contiki-z1.a(rpl-icmp6.o)
 .data.dao_ack_handler
                0x00001244        0x8 contiki-z1.a(rpl-icmp6.o)
 .data.rpl_mrhof
                0x0000124c       0x1a contiki-z1.a(rpl-mrhof.o)
                0x0000124c                rpl_mrhof
 .data.neighbor_addr_mem
                0x00001266        0x8 contiki-z1.a(nbr-table.o)
 .data.buframmem
                0x0000126e        0x8 contiki-z1.a(queuebuf.o)
 .data.bufmem   0x00001276        0x8 contiki-z1.a(queuebuf.o)
 .data.coap_error_message
                0x0000127e        0x2 contiki-z1.a(er-coap.o)
                0x0000127e                coap_error_message
 .data.prescale_lsb
                0x00001280        0x1 contiki-z1.a(i2cmaster.o)
                0x00001280                prescale_lsb
 *fill*         0x00001281        0x1 00
 .data.next     0x00001282        0x4 /usr/local/msp430/bin/../lib/gcc/msp430/4.7.0/../../../../msp430/lib/mcpu-430x/mmpy-16/msr20/mc20/libc.a(rand.o)
 *(.near.data .near.data.*)
                0x00001286                . = ALIGN (0x2)
                0x00001286                _edata = .
                0x0000ee64                __data_load_start = LOADADDR (.data)
                0x00000186                __data_size = SIZEOF (.data)

.bss            0x00001286     0x150a load address 0x0000efea
                0x00001286                __bss_start = .
 *(.bss .bss.*)
 .bss.irq_energest.4215
                0x00001286        0x4 obj_z1/contiki-z1-main.o
 .bss.message.4883
                0x0000128a       0x80 contiki-z1.a(er-coap-engine.)
 .bss.transaction.4885
                0x0000130a        0x2 contiki-z1.a(er-coap-engine.)
 .bss.response.4884
                0x0000130c       0x80 contiki-z1.a(er-coap-engine.)
 .bss.service_cbk
                0x0000138c        0x4 contiki-z1.a(er-coap-engine.)
 .bss.transaction_handler_process
                0x00001390        0x2 contiki-z1.a(er-coap-transac)
 .bss.transactions_list_list
                0x00001392        0x2 contiki-z1.a(er-coap-transac)
 .bss.transactions_memb_memb_count
                0x00001394        0x4 contiki-z1.a(er-coap-transac)
 .bss.transactions_memb_memb_mem
                0x00001398      0x2b0 contiki-z1.a(er-coap-transac)
 .bss.observers_list_list
                0x00001648        0x2 contiki-z1.a(er-coap-observe)
 .bss.observers_memb_memb_count
                0x0000164a        0x3 contiki-z1.a(er-coap-observe)
 *fill*         0x0000164d        0x1 00
 .bss.observers_memb_memb_mem
                0x0000164e       0x9c contiki-z1.a(er-coap-observe)
 .bss.restful_services_list
                0x000016ea        0x2 contiki-z1.a(rest-engine.o)
 .bss.restful_periodic_services_list
                0x000016ec        0x2 contiki-z1.a(rest-engine.o)
 .bss.leds      0x000016ee        0x1 contiki-z1.a(leds.o)
 *fill*         0x000016ef        0x1 00
 .bss.counter   0x000016f0        0x2 contiki-z1.a(watchdog.o)
 .bss.last_packet_timestamp
                0x000016f2        0x2 contiki-z1.a(cc2420.o)
 .bss.receive_on
                0x000016f4        0x1 contiki-z1.a(cc2420.o)
 .bss.locked    0x000016f5        0x1 contiki-z1.a(cc2420.o)
 .bss.lock_off  0x000016f6        0x1 contiki-z1.a(cc2420.o)
 .bss.lock_on   0x000016f7        0x1 contiki-z1.a(cc2420.o)
 .bss.channel   0x000016f8        0x2 contiki-z1.a(cc2420.o)
 .bss.node_id   0x000016fa        0x2 contiki-z1.a(node-id.o)
                0x000016fa                node_id
 .bss.num_sensors
                0x000016fc        0x1 contiki-z1.a(sensors.o)
 *fill*         0x000016fd        0x1 00
 .bss.i.2078    0x000016fe        0x2 contiki-z1.a(sensors.o)
 .bss.events.2079
                0x00001700        0x2 contiki-z1.a(sensors.o)
 .bss.debouncetimer
                0x00001702        0x8 contiki-z1.a(button-sensor.o)
 .bss.transmitting
                0x0000170a        0x1 contiki-z1.a(uart0.o)
 *fill*         0x0000170b        0x1 00
 .bss.uart0_input_handler
                0x0000170c        0x4 contiki-z1.a(uart0.o)
 .bss.int1_mask
                0x00001710        0x2 contiki-z1.a(adxl345.o)
 .bss.int2_mask
                0x00001712        0x2 contiki-z1.a(adxl345.o)
 .bss._ADXL345_STATUS
                0x00001714        0x2 contiki-z1.a(adxl345.o)
 .bss.suppressTimer1
                0x00001716        0x8 contiki-z1.a(adxl345.o)
 .bss.suppressTimer2
                0x0000171e        0x8 contiki-z1.a(adxl345.o)
 .bss.last_tar  0x00001726        0x2 contiki-z1.a(clock.o)
 .bss.count     0x00001728        0x4 contiki-z1.a(clock.o)
 .bss.seconds   0x0000172c        0x4 contiki-z1.a(clock.o)
 .bss.initialized
                0x00001730        0x1 contiki-z1.a(ctimer.o)
 *fill*         0x00001731        0x1 00
 .bss.ctimer_list_list
                0x00001732        0x2 contiki-z1.a(ctimer.o)
 .bss.timerlist
                0x00001734        0x2 contiki-z1.a(etimer.o)
 .bss.next_expiration
                0x00001736        0x4 contiki-z1.a(etimer.o)
 .bss.poll_requested
                0x0000173a        0x1 contiki-z1.a(process.o)
 *fill*         0x0000173b        0x1 00
 .bss.process_current
                0x0000173c        0x2 contiki-z1.a(process.o)
                0x0000173c                process_current
 .bss.process_list
                0x0000173e        0x2 contiki-z1.a(process.o)
                0x0000173e                process_list
 .bss.lastevent
                0x00001740        0x1 contiki-z1.a(process.o)
 .bss.fevent    0x00001741        0x1 contiki-z1.a(process.o)
 .bss.nevents   0x00001742        0x1 contiki-z1.a(process.o)
 *fill*         0x00001743        0x1 00
 .bss.events    0x00001744       0x30 contiki-z1.a(process.o)
 .bss.ev.1857   0x00001774        0x1 contiki-z1.a(process.o)
 *fill*         0x00001775        0x1 00
 .bss.data.1858
                0x00001776        0x2 contiki-z1.a(process.o)
 .bss.receiver.1859
                0x00001778        0x2 contiki-z1.a(process.o)
 .bss.p.1860    0x0000177a        0x2 contiki-z1.a(process.o)
 .bss.snum.1875
                0x0000177c        0x1 contiki-z1.a(process.o)
 *fill*         0x0000177d        0x1 00
 .bss.next_rtimer
                0x0000177e        0x2 contiki-z1.a(rtimer.o)
 .bss.callback  0x00001780        0x2 contiki-z1.a(sicslowpan.o)
 .bss.addr_contexts
                0x00001782       0x14 contiki-z1.a(sicslowpan.o)
 .bss.uncomp_hdr_len
                0x00001796        0x1 contiki-z1.a(sicslowpan.o)
 .bss.packetbuf_hdr_len
                0x00001797        0x1 contiki-z1.a(sicslowpan.o)
 .bss.packetbuf_ptr
                0x00001798        0x2 contiki-z1.a(sicslowpan.o)
 .bss.my_tag    0x0000179a        0x2 contiki-z1.a(sicslowpan.o)
 .bss.packetbuf_payload_len
                0x0000179c        0x2 contiki-z1.a(sicslowpan.o)
 .bss.last_tx_status
                0x0000179e        0x2 contiki-z1.a(sicslowpan.o)
 .bss.hc06_ptr  0x000017a0        0x2 contiki-z1.a(sicslowpan.o)
 .bss.context   0x000017a2        0x2 contiki-z1.a(sicslowpan.o)
 .bss.last_rssi
                0x000017a4        0x2 contiki-z1.a(sicslowpan.o)
 .bss.reass_timer
                0x000017a6        0x8 contiki-z1.a(sicslowpan.o)
 .bss.sicslowpan_len
                0x000017ae        0x2 contiki-z1.a(sicslowpan.o)
 .bss.processed_ip_in_len
                0x000017b0        0x2 contiki-z1.a(sicslowpan.o)
 .bss.reass_tag
                0x000017b2        0x2 contiki-z1.a(sicslowpan.o)
 .bss.sicslowpan_aligned_buf
                0x000017b4      0x118 contiki-z1.a(sicslowpan.o)
 .bss.uip_ext_opt_offset
                0x000018cc        0x1 contiki-z1.a(uip6.o)
                0x000018cc                uip_ext_opt_offset
 .bss.uip_ext_len
                0x000018cd        0x1 contiki-z1.a(uip6.o)
                0x000018cd                uip_ext_len
 .bss.uip_ext_bitmap
                0x000018ce        0x1 contiki-z1.a(uip6.o)
                0x000018ce                uip_ext_bitmap
 .bss.c         0x000018cf        0x1 contiki-z1.a(uip6.o)
 .bss.lastport  0x000018d0        0x2 contiki-z1.a(uip6.o)
 .bss.iss       0x000018d2        0x4 contiki-z1.a(uip6.o)
 .bss.tmp16     0x000018d6        0x2 contiki-z1.a(uip6.o)
 .bss.opt       0x000018d8        0x1 contiki-z1.a(uip6.o)
 *fill*         0x000018d9        0x1 00
 .bss.loc_fipaddr
                0x000018da       0x10 contiki-z1.a(uip-ds6.o)
 .bss.locaddr   0x000018ea        0x2 contiki-z1.a(uip-ds6.o)
 .bss.locprefix
                0x000018ec        0x2 contiki-z1.a(uip-ds6.o)
 .bss.locmaddr  0x000018ee        0x2 contiki-z1.a(uip-ds6.o)
 .bss._ds6_neighbors_mem
                0x000018f0      0x17c contiki-z1.a(uip-ds6-nbr.o)
 .bss.notificationlist_list
                0x00001a6c        0x2 contiki-z1.a(uip-ds6-route.o)
 .bss.defaultrouterlist_list
                0x00001a6e        0x2 contiki-z1.a(uip-ds6-route.o)
 .bss.routelist_list
                0x00001a70        0x2 contiki-z1.a(uip-ds6-route.o)
 .bss.num_routes
                0x00001a72        0x2 contiki-z1.a(uip-ds6-route.o)
 .bss.routememb_memb_count
                0x00001a74        0xa contiki-z1.a(uip-ds6-route.o)
 .bss.routememb_memb_mem
                0x00001a7e      0x12c contiki-z1.a(uip-ds6-route.o)
 .bss.defaultroutermemb_memb_count
                0x00001baa        0x2 contiki-z1.a(uip-ds6-route.o)
 .bss.defaultroutermemb_memb_mem
                0x00001bac       0x38 contiki-z1.a(uip-ds6-route.o)
 .bss._nbr_routes_mem
                0x00001be4       0x28 contiki-z1.a(uip-ds6-route.o)
 .bss.neighborroutememb_memb_count
                0x00001c0c        0xa contiki-z1.a(uip-ds6-route.o)
 .bss.neighborroutememb_memb_mem
                0x00001c16       0x28 contiki-z1.a(uip-ds6-route.o)
 .bss.input_handler_list_list
                0x00001c3e        0x2 contiki-z1.a(uip-icmp6.o)
 .bss.tmp_ipaddr
                0x00001c40       0x10 contiki-z1.a(uip-icmp6.o)
 .bss.echo_reply_callback_list_list
                0x00001c50        0x2 contiki-z1.a(uip-icmp6.o)
 .bss.nd6_opt_offset
                0x00001c52        0x1 contiki-z1.a(uip-nd6.o)
 *fill*         0x00001c53        0x1 00
 .bss.nd6_opt_llao
                0x00001c54        0x2 contiki-z1.a(uip-nd6.o)
 .bss.addr      0x00001c56        0x2 contiki-z1.a(uip-nd6.o)
 .bss.nbr       0x00001c58        0x2 contiki-z1.a(uip-nd6.o)
 .bss.defrt     0x00001c5a        0x2 contiki-z1.a(uip-nd6.o)
 .bss.outputfunc
                0x00001c5c        0x4 contiki-z1.a(tcpip.o)
 .bss.i.4457    0x00001c60        0x1 contiki-z1.a(tcpip.o)
 *fill*         0x00001c61        0x1 00
 .bss.s         0x00001c62       0x22 contiki-z1.a(tcpip.o)
 .bss.periodic  0x00001c84        0xc contiki-z1.a(tcpip.o)
 .bss.i.4401    0x00001c90        0x1 contiki-z1.a(tcpip.o)
 .bss.i.4445    0x00001c91        0x1 contiki-z1.a(tcpip.o)
 .bss.mode      0x00001c92        0x2 contiki-z1.a(rpl.o)
 .bss._rpl_parents_mem
                0x00001c94       0x78 contiki-z1.a(rpl-dag.o)
 .bss.next_dis  0x00001d0c        0x2 contiki-z1.a(rpl-timers.o)
 .bss.periodic_timer
                0x00001d0e       0x16 contiki-z1.a(rpl-timers.o)
 .bss.dio_send_ok
                0x00001d24        0x1 contiki-z1.a(rpl-timers.o)
 *fill*         0x00001d25        0x1 00
 .bss.num_tables
                0x00001d26        0x2 contiki-z1.a(nbr-table.o)
 .bss.all_tables
                0x00001d28       0x10 contiki-z1.a(nbr-table.o)
 .bss.used_map  0x00001d38        0xa contiki-z1.a(nbr-table.o)
 .bss.nbr_table_keys_list
                0x00001d42        0x2 contiki-z1.a(nbr-table.o)
 .bss.locked_map
                0x00001d44        0xa contiki-z1.a(nbr-table.o)
 .bss.neighbor_addr_mem_memb_count
                0x00001d4e        0xa contiki-z1.a(nbr-table.o)
 .bss.neighbor_addr_mem_memb_mem
                0x00001d58       0x64 contiki-z1.a(nbr-table.o)
 .bss.bufptr    0x00001dbc        0x2 contiki-z1.a(packetbuf.o)
 .bss.buflen    0x00001dbe        0x2 contiki-z1.a(packetbuf.o)
 .bss.hdrptr    0x00001dc0        0x1 contiki-z1.a(packetbuf.o)
 *fill*         0x00001dc1        0x1 00
 .bss.packetbufptr
                0x00001dc2        0x2 contiki-z1.a(packetbuf.o)
 .bss.packetbuf_aligned
                0x00001dc4       0xb0 contiki-z1.a(packetbuf.o)
 .bss.buframmem_memb_count
                0x00001e74        0x4 contiki-z1.a(queuebuf.o)
 .bss.buframmem_memb_mem
                0x00001e78      0x2c0 contiki-z1.a(queuebuf.o)
 .bss.bufmem_memb_count
                0x00002138        0x4 contiki-z1.a(queuebuf.o)
 .bss.bufmem_memb_mem
                0x0000213c        0x8 contiki-z1.a(queuebuf.o)
 .bss.initialized
                0x00002144        0x1 contiki-z1.a(framer-802154.o)
 .bss.mac_dsn   0x00002145        0x1 contiki-z1.a(framer-802154.o)
 .bss.erbium_status_code
                0x00002146        0x2 contiki-z1.a(er-coap.o)
                0x00002146                erbium_status_code
 .bss.udp_conn  0x00002148        0x2 contiki-z1.a(er-coap.o)
 .bss.current_mid
                0x0000214a        0x2 contiki-z1.a(er-coap.o)
 .bss.tx_byte_tot
                0x0000214c        0x1 contiki-z1.a(i2cmaster.o)
 .bss.rx_byte_tot
                0x0000214d        0x1 contiki-z1.a(i2cmaster.o)
 .bss.prescale_msb
                0x0000214e        0x1 contiki-z1.a(i2cmaster.o)
                0x0000214e                prescale_msb
 *fill*         0x0000214f        0x1 00
 .bss.destination_
                0x00002150        0x2 /usr/local/msp430/bin/../lib/gcc/msp430/4.7.0/../../../../msp430/lib/mcpu-430x/mmpy-16/msr20/mc20/libc.a(sprintf.o)
 .bss.available_
                0x00002152        0x2 /usr/local/msp430/bin/../lib/gcc/msp430/4.7.0/../../../../msp430/lib/mcpu-430x/mmpy-16/msr20/mc20/libc.a(sprintf.o)
 *(.near.bss .near.bss.*)
 *(COMMON)
 COMMON         0x00002154        0x2 obj_z1/contiki-z1-main.o
                0x00002154                sensors_flags
 COMMON         0x00002156       0x10 contiki-z1.a(cc2420.o)
                0x00002156                cc2420_last_rssi
                0x00002158                cc2420_sfd_start_time
                0x0000215a                cc2420_time_of_departure
                0x0000215c                cc2420_time_of_arrival
                0x0000215e                cc2420_last_correlation
                0x00002160                cc2420_authority_level_of_sender
                0x00002162                cc2420_sfd_counter
                0x00002164                cc2420_sfd_end_time
 COMMON         0x00002166        0x8 contiki-z1.a(node-id.o)
                0x00002166                node_mac
 COMMON         0x0000216e        0x1 contiki-z1.a(sensors.o)
                0x0000216e                sensors_event
 *fill*         0x0000216f        0x1 00
 COMMON         0x00002170        0xb contiki-z1.a(adxl345.o)
                0x00002170                accm_int2_cb
                0x00002174                int2_event
                0x00002176                accm_int1_cb
                0x0000217a                int1_event
 *fill*         0x0000217b        0x1 00
 COMMON         0x0000217c       0x56 contiki-z1.a(energest.o)
                0x0000217c                energest_total_time
                0x000021ac                energest_total_count
                0x000021ae                energest_current_mode
                0x000021ba                energest_current_time
 COMMON         0x000021d2        0x1 contiki-z1.a(process.o)
                0x000021d2                process_maxevents
 *fill*         0x000021d3        0x1 00
 COMMON         0x000021d4        0x8 contiki-z1.a(sicslowpan.o)
                0x000021d4                frag_sender
 COMMON         0x000021dc      0x32c contiki-z1.a(uip6.o)
                0x000021dc                uip_len
                0x000021de                uip_sappdata
                0x000021e0                uip_acc32
                0x000021e4                uip_lladdr
                0x000021ec                uip_aligned_buf
                0x00002304                uip_flags
                0x00002306                uip_next_hdr
                0x00002308                uip_udp_conn
                0x0000230a                uip_appdata
                0x0000230c                uip_conn
                0x0000230e                uip_conns
                0x000023be                uip_listenports
                0x000023ce                uip_slen
                0x000023d0                uip_udp_conns
 COMMON         0x00002508      0x15c contiki-z1.a(uip-ds6.o)
                0x00002508                uip_ds6_timer_ra
                0x00002510                uip_ds6_if
                0x000025fc                uip_ds6_netif_addr_list_offset
                0x000025fd                uip_ds6_addr_size
                0x000025fe                uip_ds6_prefix_list
                0x00002658                uip_ds6_timer_periodic
 COMMON         0x00002664        0x1 contiki-z1.a(tcpip.o)
                0x00002664                tcpip_event
 *fill*         0x00002665        0x1 00
 COMMON         0x00002666       0xe6 contiki-z1.a(rpl-dag.o)
                0x00002666                default_instance
                0x00002668                instance_table
 COMMON         0x0000274c        0x8 contiki-z1.a(linkaddr.o)
                0x0000274c                linkaddr_node_addr
 COMMON         0x00002754       0x2e contiki-z1.a(packetbuf.o)
                0x00002754                packetbuf_addrs
                0x00002764                packetbuf_attrs
 COMMON         0x00002782        0xe contiki-z1.a(i2cmaster.o)
                0x00002782                transmit_data1
                0x00002783                rx_byte_ctr
                0x00002784                tx_buf_ptr
                0x00002786                tx_byte_ctr
                0x00002788                i
                0x0000278a                receive_data
                0x0000278b                rx_buf
                0x0000278d                transmit_data2
                0x0000278e                rx_buf_ptr
                0x00002790                . = ALIGN (0x2)
                0x00002790                __bss_end = .
                0x0000150a                __bss_size = SIZEOF (.bss)

.noinit         0x00002790        0x2 load address 0x0000efea
                0x00002790                . = ALIGN (0x2)
                0x00002790                __noinit_start = .
 *(.noinit .noinit.*)
 .noinit.crt0   0x00002790        0x2 /usr/local/msp430/bin/../lib/gcc/msp430/4.7.0/mcpu-430x/mmpy-16/msr20/mc20/libcrt0.a(__watchdog_support.o)
                0x00002790                __wdt_clear_value
                0x00002792                . = ALIGN (0x2)
                0x00002792                __noinit_end = .
                0x00002792                . = ALIGN (0x2)
                0x00002792                _end = .

.infomem        0x00001000        0x0
                0x00001000                . = ALIGN (0x2)
 *(.infomem .infomem.*)

.infomemnobits  0x00001000        0x0
                0x00001000                . = ALIGN (0x2)
 *(.infomemnobits .infomemnobits.*)

.infoa          0x000010c0        0x0
                0x000010c0                . = ALIGN (0x2)
 *(.infoa .infoa.*)

.infob          0x00001080        0x0
                0x00001080                . = ALIGN (0x2)
 *(.infob .infob.*)

.infoc          0x00001040        0x0
                0x00001040                . = ALIGN (0x2)
 *(.infoc .infoc.*)

.infod          0x00001000        0x0
                0x00001000                . = ALIGN (0x2)
 *(.infod .infod.*)

.vectors        0x0000ffc0       0x40
                0x0000ffc0                __vectors_start = .
 *(.vectors*)
 .vectors       0x0000ffc0       0x40 /usr/local/msp430/bin/../lib/gcc/msp430/4.7.0/mcpu-430x/mmpy-16/msr20/mc20/crt0ivtbl32.o
                0x0000ffc0                __ivtbl_32
                0x00010000                _vectors_end = .

.fartext        0x00010000        0x0
                0x00010000                . = ALIGN (0x2)
 *(.fartext .fartext.*)

.far.text       0x00010000        0x0
                0x00010000                . = ALIGN (0x2)
 *(.far.text .far.text.*)

.far.rodata     0x00010000        0x0
                0x00010000                . = ALIGN (0x2)
 *(.far.rodata .far.rodata.*)
                0x00010000                . = ALIGN (0x2)
                0x00010000                _efartext = .

.far.data       0x00000000        0x0 load address 0x00010000
                0x00000000                . = ALIGN (0x2)
                0x00000000                __far_data_start = .
 *(.far.data .far.data.*)
                0x00000000                . = ALIGN (0x2)
                0x00000000                _efardata = .
                0x00010000                __far_data_load_start = LOADADDR (.far.data)
                0x00000000                __far_data_size = SIZEOF (.far.data)

.far.bss        0x00000000        0x0 load address 0x00010000
                0x00000000                . = ALIGN (0x2)
                0x00000000                __far_bss_start = .
 *(.far.bss .far.bss.*)
                0x00000000                . = ALIGN (0x2)
                0x00000000                __far_bss_end = .
                0x00000000                __far_bss_size = SIZEOF (.far.bss)
                0x00000000                . = ALIGN (0x2)
                0x00000000                _far_end = .

.profiler
 *(.profiler)

.stab           0x00000000    0x2d45c
 *(.stab)
 .stab          0x00000000     0x1aac coap-server.co
 .stab          0x00001aac     0x1290 obj_z1/contiki-z1-main.o
                               0x1b18 (size before relaxing)
 .stab          0x00002d3c     0x10ec contiki-z1.a(er-coap-engine.)
                               0x225c (size before relaxing)
 .stab          0x00003e28      0xa14 contiki-z1.a(er-coap-transac)
                               0x1ce0 (size before relaxing)
 .stab          0x0000483c      0xda4 contiki-z1.a(er-coap-observe)
                               0x20dc (size before relaxing)
 .stab          0x000055e0      0x840 contiki-z1.a(er-coap-res-wel)
                               0x1c2c (size before relaxing)
 .stab          0x00005e20      0x810 contiki-z1.a(rest-engine.o)
                                0xe04 (size before relaxing)
 .stab          0x00006630      0x234 contiki-z1.a(contiki-z1-plat)
                                0x5ac (size before relaxing)
 .stab          0x00006864      0x498 contiki-z1.a(msp430.o)
                                0x804 (size before relaxing)
 .stab          0x00006cfc      0x5a0 contiki-z1.a(leds.o)
                                0x804 (size before relaxing)
 .stab          0x0000729c      0x3cc contiki-z1.a(watchdog.o)
                                0x738 (size before relaxing)
 .stab          0x00007668      0x99c contiki-z1.a(xmem.o)
                                0xef4 (size before relaxing)
 .stab          0x00008004      0x27c contiki-z1.a(spi.o)
                                0x5e8 (size before relaxing)
 .stab          0x00008280     0x2574 contiki-z1.a(cc2420.o)
                               0x2c58 (size before relaxing)
 .stab          0x0000a7f4      0x51c contiki-z1.a(cc2420-arch.o)
                               0x16b0 (size before relaxing)
 .stab          0x0000ad10      0x300 contiki-z1.a(node-id.o)
                                0x6f0 (size before relaxing)
 .stab          0x0000b010      0x69c contiki-z1.a(sensors.o)
                                0xbd0 (size before relaxing)
 .stab          0x0000b6ac      0x468 contiki-z1.a(button-sensor.o)
                                0x7ec (size before relaxing)
 .stab          0x0000bb14      0x4e0 contiki-z1.a(uart0.o)
                                0xa2c (size before relaxing)
 .stab          0x0000bff4      0x264 contiki-z1.a(uart0-putchar.o)
                                0x7a4 (size before relaxing)
 .stab          0x0000c258      0xb04 contiki-z1.a(adxl345.o)
                               0x1134 (size before relaxing)
 .stab          0x0000cd5c      0x930 contiki-z1.a(clock.o)
                                0xc9c (size before relaxing)
 .stab          0x0000d68c      0x378 contiki-z1.a(leds-arch.o)
                                0x6e4 (size before relaxing)
 .stab          0x0000da04      0x3b4 contiki-z1.a(rtimer-arch.o)
                                0x720 (size before relaxing)
 .stab          0x0000ddb8      0x288 contiki-z1.a(autostart.o)
                                0x54c (size before relaxing)
 .stab          0x0000e040      0x78c contiki-z1.a(ctimer.o)
                                0xb10 (size before relaxing)
 .stab          0x0000e7cc      0x48c contiki-z1.a(energest.o)
                                0x72c (size before relaxing)
 .stab          0x0000ec58      0x9fc contiki-z1.a(etimer.o)
                                0xce4 (size before relaxing)
 .stab          0x0000f654      0xb70 contiki-z1.a(process.o)
                               0x1020 (size before relaxing)
 .stab          0x000101c4      0x3cc contiki-z1.a(rtimer.o)
                                0x6cc (size before relaxing)
 .stab          0x00010590      0x348 contiki-z1.a(timer.o)
                                0x5a0 (size before relaxing)
 .stab          0x000108d8      0x7bc contiki-z1.a(list.o)
                                0x7c8 (size before relaxing)
 .stab          0x00011094      0x5c4 contiki-z1.a(memb.o)
                                0xb10 (size before relaxing)
 .stab          0x00011658      0x21c contiki-z1.a(random.o)
                                0x630 (size before relaxing)
 .stab          0x00011874     0x21a8 contiki-z1.a(sicslowpan.o)
                               0x3108 (size before relaxing)
 .stab          0x00013a1c     0x2aa8 contiki-z1.a(uip6.o)
                               0x3678 (size before relaxing)
 .stab          0x000164c4     0x13bc contiki-z1.a(uip-ds6.o)
                               0x1f74 (size before relaxing)
 .stab          0x00017880      0xdd4 contiki-z1.a(uip-ds6-nbr.o)
                               0x1824 (size before relaxing)
 .stab          0x00018654     0x1200 contiki-z1.a(uip-ds6-route.o)
                               0x1da0 (size before relaxing)
 .stab          0x00019854      0xcd8 contiki-z1.a(uip-icmp6.o)
                               0x1968 (size before relaxing)
 .stab          0x0001a52c      0xcfc contiki-z1.a(uip-nd6.o)
                               0x18f0 (size before relaxing)
 .stab          0x0001b228     0x1308 contiki-z1.a(tcpip.o)
                               0x2568 (size before relaxing)
 .stab          0x0001c530      0x450 contiki-z1.a(uip-debug.o)
                                0xbf4 (size before relaxing)
 .stab          0x0001c980      0xb58 contiki-z1.a(rpl.o)
                               0x17c4 (size before relaxing)
 .stab          0x0001d4d8     0x2ebc contiki-z1.a(rpl-dag.o)
                               0x3bdc (size before relaxing)
 .stab          0x00020394      0xa50 contiki-z1.a(rpl-ext-header.)
                               0x1824 (size before relaxing)
 .stab          0x00020de4     0x1764 contiki-z1.a(rpl-icmp6.o)
                               0x2580 (size before relaxing)
 .stab          0x00022548      0x894 contiki-z1.a(rpl-mrhof.o)
                               0x159c (size before relaxing)
 .stab          0x00022ddc      0xbac contiki-z1.a(rpl-timers.o)
                               0x18b4 (size before relaxing)
 .stab          0x00023988      0x2ac contiki-z1.a(linkaddr.o)
                                0x6c0 (size before relaxing)
 .stab          0x00023c34      0xe58 contiki-z1.a(nbr-table.o)
                               0x1518 (size before relaxing)
 .stab          0x00024a8c      0xd74 contiki-z1.a(packetbuf.o)
                               0x1eb4 (size before relaxing)
 .stab          0x00025800      0xa80 contiki-z1.a(queuebuf.o)
                               0x1ba8 (size before relaxing)
 .stab          0x00026280      0x924 contiki-z1.a(framer-802154.o)
                                0xf60 (size before relaxing)
 .stab          0x00026ba4      0x3fc contiki-z1.a(framer.o)
                                0xc6c (size before relaxing)
 .stab          0x00026fa0      0x948 contiki-z1.a(nullmac.o)
                                0xdc8 (size before relaxing)
 .stab          0x000278e8      0x8f4 contiki-z1.a(nullrdc.o)
                               0x105c (size before relaxing)
 .stab          0x000281dc      0x648 contiki-z1.a(nullsec.o)
                                0xd98 (size before relaxing)
 .stab          0x00028824     0x3114 contiki-z1.a(er-coap.o)
                               0x441c (size before relaxing)
 .stab          0x0002b938      0x84c contiki-z1.a(i2cmaster.o)
                                0xbb8 (size before relaxing)
 .stab          0x0002c184      0x3b4 contiki-z1.a(stimer.o)
                                0x60c (size before relaxing)
 .stab          0x0002c538      0x438 contiki-z1.a(uip-udp-packet.)
                                0xc0c (size before relaxing)
 .stab          0x0002c970      0x8f4 contiki-z1.a(frame802154.o)
                               0x10e0 (size before relaxing)
 .stab          0x0002d264      0x1f8 contiki-z1.a(mac.o)
                                0x504 (size before relaxing)

.stabstr        0x00000000    0x20b02
 *(.stabstr)
 .stabstr       0x00000000    0x20b02 coap-server.co

.stab.excl
 *(.stab.excl)

.stab.exclstr
 *(.stab.exclstr)

.stab.index
 *(.stab.index)

.stab.indexstr
 *(.stab.indexstr)

.comment        0x00000000       0x30
 *(.comment)
 .comment       0x00000000       0x30 coap-server.co
                                 0x31 (size before relaxing)
 .comment       0x00000000       0x31 obj_z1/contiki-z1-main.o
 .comment       0x00000000       0x31 contiki-z1.a(er-coap-engine.)
 .comment       0x00000000       0x31 contiki-z1.a(er-coap-transac)
 .comment       0x00000000       0x31 contiki-z1.a(er-coap-observe)
 .comment       0x00000000       0x31 contiki-z1.a(er-coap-res-wel)
 .comment       0x00000000       0x31 contiki-z1.a(rest-engine.o)
 .comment       0x00000000       0x31 contiki-z1.a(contiki-z1-plat)
 .comment       0x00000000       0x31 contiki-z1.a(msp430.o)
 .comment       0x00000000       0x31 contiki-z1.a(leds.o)
 .comment       0x00000000       0x31 contiki-z1.a(watchdog.o)
 .comment       0x00000000       0x31 contiki-z1.a(xmem.o)
 .comment       0x00000000       0x31 contiki-z1.a(spi.o)
 .comment       0x00000000       0x31 contiki-z1.a(cc2420.o)
 .comment       0x00000000       0x31 contiki-z1.a(cc2420-arch.o)
 .comment       0x00000000       0x31 contiki-z1.a(node-id.o)
 .comment       0x00000000       0x31 contiki-z1.a(sensors.o)
 .comment       0x00000000       0x31 contiki-z1.a(button-sensor.o)
 .comment       0x00000000       0x31 contiki-z1.a(uart0.o)
 .comment       0x00000000       0x31 contiki-z1.a(uart0-putchar.o)
 .comment       0x00000000       0x31 contiki-z1.a(adxl345.o)
 .comment       0x00000000       0x31 contiki-z1.a(clock.o)
 .comment       0x00000000       0x31 contiki-z1.a(leds-arch.o)
 .comment       0x00000000       0x31 contiki-z1.a(rtimer-arch.o)
 .comment       0x00000000       0x31 contiki-z1.a(autostart.o)
 .comment       0x00000000       0x31 contiki-z1.a(ctimer.o)
 .comment       0x00000000       0x31 contiki-z1.a(energest.o)
 .comment       0x00000000       0x31 contiki-z1.a(etimer.o)
 .comment       0x00000000       0x31 contiki-z1.a(process.o)
 .comment       0x00000000       0x31 contiki-z1.a(rtimer.o)
 .comment       0x00000000       0x31 contiki-z1.a(timer.o)
 .comment       0x00000000       0x31 contiki-z1.a(list.o)
 .comment       0x00000000       0x31 contiki-z1.a(memb.o)
 .comment       0x00000000       0x31 contiki-z1.a(random.o)
 .comment       0x00000000       0x31 contiki-z1.a(sicslowpan.o)
 .comment       0x00000000       0x31 contiki-z1.a(uip6.o)
 .comment       0x00000000       0x31 contiki-z1.a(uip-ds6.o)
 .comment       0x00000000       0x31 contiki-z1.a(uip-ds6-nbr.o)
 .comment       0x00000000       0x31 contiki-z1.a(uip-ds6-route.o)
 .comment       0x00000000       0x31 contiki-z1.a(uip-icmp6.o)
 .comment       0x00000000       0x31 contiki-z1.a(uip-nd6.o)
 .comment       0x00000000       0x31 contiki-z1.a(tcpip.o)
 .comment       0x00000000       0x31 contiki-z1.a(uip-debug.o)
 .comment       0x00000000       0x31 contiki-z1.a(rpl.o)
 .comment       0x00000000       0x31 contiki-z1.a(rpl-dag.o)
 .comment       0x00000000       0x31 contiki-z1.a(rpl-ext-header.)
 .comment       0x00000000       0x31 contiki-z1.a(rpl-icmp6.o)
 .comment       0x00000000       0x31 contiki-z1.a(rpl-mrhof.o)
 .comment       0x00000000       0x31 contiki-z1.a(rpl-timers.o)
 .comment       0x00000000       0x31 contiki-z1.a(linkaddr.o)
 .comment       0x00000000       0x31 contiki-z1.a(nbr-table.o)
 .comment       0x00000000       0x31 contiki-z1.a(packetbuf.o)
 .comment       0x00000000       0x31 contiki-z1.a(queuebuf.o)
 .comment       0x00000000       0x31 contiki-z1.a(framer-802154.o)
 .comment       0x00000000       0x31 contiki-z1.a(framer.o)
 .comment       0x00000000       0x31 contiki-z1.a(nullmac.o)
 .comment       0x00000000       0x31 contiki-z1.a(nullrdc.o)
 .comment       0x00000000       0x31 contiki-z1.a(nullsec.o)
 .comment       0x00000000       0x31 contiki-z1.a(er-coap.o)
 .comment       0x00000000       0x31 contiki-z1.a(i2cmaster.o)
 .comment       0x00000000       0x31 contiki-z1.a(stimer.o)
 .comment       0x00000000       0x31 contiki-z1.a(uip-udp-packet.)
 .comment       0x00000000       0x31 contiki-z1.a(frame802154.o)
 .comment       0x00000000       0x31 contiki-z1.a(mac.o)
 .comment       0x00000000       0x31 /usr/local/msp430/bin/../lib/gcc/msp430/4.7.0/../../../../msp430/lib/mcpu-430x/mmpy-16/msr20/mc20/libc.a(printf.o)
 .comment       0x00000000       0x31 /usr/local/msp430/bin/../lib/gcc/msp430/4.7.0/../../../../msp430/lib/mcpu-430x/mmpy-16/msr20/mc20/libc.a(sprintf.o)
 .comment       0x00000000       0x31 /usr/local/msp430/bin/../lib/gcc/msp430/4.7.0/../../../../msp430/lib/mcpu-430x/mmpy-16/msr20/mc20/libc.a(vuprintf.o)
 .comment       0x00000000       0x31 /usr/local/msp430/bin/../lib/gcc/msp430/4.7.0/../../../../msp430/lib/mcpu-430x/mmpy-16/msr20/mc20/libc.a(puts.o)
 .comment       0x00000000       0x31 /usr/local/msp430/bin/../lib/gcc/msp430/4.7.0/../../../../msp430/lib/mcpu-430x/mmpy-16/msr20/mc20/libc.a(rand.o)
 .comment       0x00000000       0x31 /usr/local/msp430/bin/../lib/gcc/msp430/4.7.0/../../../../msp430/lib/mcpu-430x/mmpy-16/msr20/mc20/libc.a(strchr.o)
 .comment       0x00000000       0x31 /usr/local/msp430/bin/../lib/gcc/msp430/4.7.0/../../../../msp430/lib/mcpu-430x/mmpy-16/msr20/mc20/libc.a(memchr.o)
 .comment       0x00000000       0x31 /usr/local/msp430/bin/../lib/gcc/msp430/4.7.0/../../../../msp430/lib/mcpu-430x/mmpy-16/msr20/mc20/libc.a(strncmp.o)
 .comment       0x00000000       0x31 /usr/local/msp430/bin/../lib/gcc/msp430/4.7.0/../../../../msp430/lib/mcpu-430x/mmpy-16/msr20/mc20/libc.a(memcmp.o)
 .comment       0x00000000       0x31 /usr/local/msp430/bin/../lib/gcc/msp430/4.7.0/../../../../msp430/lib/mcpu-430x/mmpy-16/msr20/mc20/libc.a(memcpy.o)
 .comment       0x00000000       0x31 /usr/local/msp430/bin/../lib/gcc/msp430/4.7.0/../../../../msp430/lib/mcpu-430x/mmpy-16/msr20/mc20/libc.a(memmove.o)
 .comment       0x00000000       0x31 /usr/local/msp430/bin/../lib/gcc/msp430/4.7.0/../../../../msp430/lib/mcpu-430x/mmpy-16/msr20/mc20/libc.a(memset.o)

.debug
 *(.debug)

.line
 *(.line)

.debug_srcinfo
 *(.debug_srcinfo)

.debug_sfnames
 *(.debug_sfnames)

.debug_aranges  0x00000000      0x368
 *(.debug_aranges)
 .debug_aranges
                0x00000000       0x20 /usr/local/msp430/bin/../lib/gcc/msp430/4.7.0/mcpu-430x/mmpy-16/msr20/mc20/crt0ivtbl32.o
 .debug_aranges
                0x00000020       0x20 /usr/local/msp430/bin/../lib/gcc/msp430/4.7.0/mcpu-430x/mmpy-16/msr20/mc20/libgcc.a(_mulsi3.o)
 .debug_aranges
                0x00000040       0x20 /usr/local/msp430/bin/../lib/gcc/msp430/4.7.0/mcpu-430x/mmpy-16/msr20/mc20/libgcc.a(_udivmod16.o)
 .debug_aranges
                0x00000060       0x20 /usr/local/msp430/bin/../lib/gcc/msp430/4.7.0/mcpu-430x/mmpy-16/msr20/mc20/libgcc.a(_divmod16.o)
 .debug_aranges
                0x00000080       0x20 /usr/local/msp430/bin/../lib/gcc/msp430/4.7.0/mcpu-430x/mmpy-16/msr20/mc20/libgcc.a(_udivmod32.o)
 .debug_aranges
                0x000000a0       0x20 /usr/local/msp430/bin/../lib/gcc/msp430/4.7.0/mcpu-430x/mmpy-16/msr20/mc20/libgcc.a(_divmod32.o)
 .debug_aranges
                0x000000c0       0x28 /usr/local/msp430/bin/../lib/gcc/msp430/4.7.0/../../../../msp430/lib/mcpu-430x/mmpy-16/msr20/mc20/libc.a(printf.o)
 .debug_aranges
                0x000000e8       0x48 /usr/local/msp430/bin/../lib/gcc/msp430/4.7.0/../../../../msp430/lib/mcpu-430x/mmpy-16/msr20/mc20/libc.a(sprintf.o)
 .debug_aranges
                0x00000130       0x28 /usr/local/msp430/bin/../lib/gcc/msp430/4.7.0/../../../../msp430/lib/mcpu-430x/mmpy-16/msr20/mc20/libc.a(vuprintf.o)
 .debug_aranges
                0x00000158       0x20 /usr/local/msp430/bin/../lib/gcc/msp430/4.7.0/../../../../msp430/lib/mcpu-430x/mmpy-16/msr20/mc20/libc.a(puts.o)
 .debug_aranges
                0x00000178       0x30 /usr/local/msp430/bin/../lib/gcc/msp430/4.7.0/../../../../msp430/lib/mcpu-430x/mmpy-16/msr20/mc20/libc.a(rand.o)
 .debug_aranges
                0x000001a8       0x20 /usr/local/msp430/bin/../lib/gcc/msp430/4.7.0/../../../../msp430/lib/mcpu-430x/mmpy-16/msr20/mc20/libc.a(strchr.o)
 .debug_aranges
                0x000001c8       0x20 /usr/local/msp430/bin/../lib/gcc/msp430/4.7.0/../../../../msp430/lib/mcpu-430x/mmpy-16/msr20/mc20/libc.a(memchr.o)
 .debug_aranges
                0x000001e8       0x20 /usr/local/msp430/bin/../lib/gcc/msp430/4.7.0/../../../../msp430/lib/mcpu-430x/mmpy-16/msr20/mc20/libc.a(strncmp.o)
 .debug_aranges
                0x00000208       0x20 /usr/local/msp430/bin/../lib/gcc/msp430/4.7.0/../../../../msp430/lib/mcpu-430x/mmpy-16/msr20/mc20/libc.a(memcmp.o)
 .debug_aranges
                0x00000228       0x20 /usr/local/msp430/bin/../lib/gcc/msp430/4.7.0/../../../../msp430/lib/mcpu-430x/mmpy-16/msr20/mc20/libc.a(memcpy.o)
 .debug_aranges
                0x00000248       0x20 /usr/local/msp430/bin/../lib/gcc/msp430/4.7.0/../../../../msp430/lib/mcpu-430x/mmpy-16/msr20/mc20/libc.a(memmove.o)
 .debug_aranges
                0x00000268       0x20 /usr/local/msp430/bin/../lib/gcc/msp430/4.7.0/../../../../msp430/lib/mcpu-430x/mmpy-16/msr20/mc20/libc.a(memset.o)
 .debug_aranges
                0x00000288       0x20 /usr/local/msp430/bin/../lib/gcc/msp430/4.7.0/mcpu-430x/mmpy-16/msr20/mc20/libgcc.a(_udivmod64.o)
 .debug_aranges
                0x000002a8       0x20 /usr/local/msp430/bin/../lib/gcc/msp430/4.7.0/mcpu-430x/mmpy-16/msr20/mc20/libcrt0.a(__watchdog_support.o)
 .debug_aranges
                0x000002c8       0x20 /usr/local/msp430/bin/../lib/gcc/msp430/4.7.0/mcpu-430x/mmpy-16/msr20/mc20/libcrt0.a(__init_stack.o)
 .debug_aranges
                0x000002e8       0x20 /usr/local/msp430/bin/../lib/gcc/msp430/4.7.0/mcpu-430x/mmpy-16/msr20/mc20/libcrt0.a(_copy_data.o)
 .debug_aranges
                0x00000308       0x20 /usr/local/msp430/bin/../lib/gcc/msp430/4.7.0/mcpu-430x/mmpy-16/msr20/mc20/libcrt0.a(_clear_bss.o)
 .debug_aranges
                0x00000328       0x20 /usr/local/msp430/bin/../lib/gcc/msp430/4.7.0/mcpu-430x/mmpy-16/msr20/mc20/libcrt0.a(_endless_loop__.o)
 .debug_aranges
                0x00000348       0x20 /usr/local/msp430/bin/../lib/gcc/msp430/4.7.0/mcpu-430x/mmpy-16/msr20/mc20/libcrt0.a(_unexpected_.o)

.debug_pubnames
 *(.debug_pubnames)

.debug_info     0x00000000     0x1e54
 *(.debug_info)
 .debug_info    0x00000000       0xbd /usr/local/msp430/bin/../lib/gcc/msp430/4.7.0/mcpu-430x/mmpy-16/msr20/mc20/crt0ivtbl32.o
 .debug_info    0x000000bd       0xba /usr/local/msp430/bin/../lib/gcc/msp430/4.7.0/mcpu-430x/mmpy-16/msr20/mc20/libgcc.a(_mulsi3.o)
 .debug_info    0x00000177       0xba /usr/local/msp430/bin/../lib/gcc/msp430/4.7.0/mcpu-430x/mmpy-16/msr20/mc20/libgcc.a(_udivmod16.o)
 .debug_info    0x00000231       0xba /usr/local/msp430/bin/../lib/gcc/msp430/4.7.0/mcpu-430x/mmpy-16/msr20/mc20/libgcc.a(_divmod16.o)
 .debug_info    0x000002eb       0xba /usr/local/msp430/bin/../lib/gcc/msp430/4.7.0/mcpu-430x/mmpy-16/msr20/mc20/libgcc.a(_udivmod32.o)
 .debug_info    0x000003a5       0xba /usr/local/msp430/bin/../lib/gcc/msp430/4.7.0/mcpu-430x/mmpy-16/msr20/mc20/libgcc.a(_divmod32.o)
 .debug_info    0x0000045f      0x18d /usr/local/msp430/bin/../lib/gcc/msp430/4.7.0/../../../../msp430/lib/mcpu-430x/mmpy-16/msr20/mc20/libc.a(printf.o)
 .debug_info    0x000005ec      0x352 /usr/local/msp430/bin/../lib/gcc/msp430/4.7.0/../../../../msp430/lib/mcpu-430x/mmpy-16/msr20/mc20/libc.a(sprintf.o)
 .debug_info    0x0000093e      0x673 /usr/local/msp430/bin/../lib/gcc/msp430/4.7.0/../../../../msp430/lib/mcpu-430x/mmpy-16/msr20/mc20/libc.a(vuprintf.o)
 .debug_info    0x00000fb1       0xe1 /usr/local/msp430/bin/../lib/gcc/msp430/4.7.0/../../../../msp430/lib/mcpu-430x/mmpy-16/msr20/mc20/libc.a(puts.o)
 .debug_info    0x00001092      0x172 /usr/local/msp430/bin/../lib/gcc/msp430/4.7.0/../../../../msp430/lib/mcpu-430x/mmpy-16/msr20/mc20/libc.a(rand.o)
 .debug_info    0x00001204       0xc2 /usr/local/msp430/bin/../lib/gcc/msp430/4.7.0/../../../../msp430/lib/mcpu-430x/mmpy-16/msr20/mc20/libc.a(strchr.o)
 .debug_info    0x000012c6       0xf8 /usr/local/msp430/bin/../lib/gcc/msp430/4.7.0/../../../../msp430/lib/mcpu-430x/mmpy-16/msr20/mc20/libc.a(memchr.o)
 .debug_info    0x000013be       0xd8 /usr/local/msp430/bin/../lib/gcc/msp430/4.7.0/../../../../msp430/lib/mcpu-430x/mmpy-16/msr20/mc20/libc.a(strncmp.o)
 .debug_info    0x00001496       0xff /usr/local/msp430/bin/../lib/gcc/msp430/4.7.0/../../../../msp430/lib/mcpu-430x/mmpy-16/msr20/mc20/libc.a(memcmp.o)
 .debug_info    0x00001595      0x144 /usr/local/msp430/bin/../lib/gcc/msp430/4.7.0/../../../../msp430/lib/mcpu-430x/mmpy-16/msr20/mc20/libc.a(memcpy.o)
 .debug_info    0x000016d9      0x144 /usr/local/msp430/bin/../lib/gcc/msp430/4.7.0/../../../../msp430/lib/mcpu-430x/mmpy-16/msr20/mc20/libc.a(memmove.o)
 .debug_info    0x0000181d      0x12d /usr/local/msp430/bin/../lib/gcc/msp430/4.7.0/../../../../msp430/lib/mcpu-430x/mmpy-16/msr20/mc20/libc.a(memset.o)
 .debug_info    0x0000194a       0xba /usr/local/msp430/bin/../lib/gcc/msp430/4.7.0/mcpu-430x/mmpy-16/msr20/mc20/libgcc.a(_udivmod64.o)
 .debug_info    0x00001a04       0xb8 /usr/local/msp430/bin/../lib/gcc/msp430/4.7.0/mcpu-430x/mmpy-16/msr20/mc20/libcrt0.a(__watchdog_support.o)
 .debug_info    0x00001abc       0xb8 /usr/local/msp430/bin/../lib/gcc/msp430/4.7.0/mcpu-430x/mmpy-16/msr20/mc20/libcrt0.a(__init_stack.o)
 .debug_info    0x00001b74       0xb8 /usr/local/msp430/bin/../lib/gcc/msp430/4.7.0/mcpu-430x/mmpy-16/msr20/mc20/libcrt0.a(_copy_data.o)
 .debug_info    0x00001c2c       0xb8 /usr/local/msp430/bin/../lib/gcc/msp430/4.7.0/mcpu-430x/mmpy-16/msr20/mc20/libcrt0.a(_clear_bss.o)
 .debug_info    0x00001ce4       0xb8 /usr/local/msp430/bin/../lib/gcc/msp430/4.7.0/mcpu-430x/mmpy-16/msr20/mc20/libcrt0.a(_endless_loop__.o)
 .debug_info    0x00001d9c       0xb8 /usr/local/msp430/bin/../lib/gcc/msp430/4.7.0/mcpu-430x/mmpy-16/msr20/mc20/libcrt0.a(_unexpected_.o)
 *(.gnu.linkonce.wi.*)

.debug_abbrev   0x00000000      0xb48
 *(.debug_abbrev)
 .debug_abbrev  0x00000000       0x14 /usr/local/msp430/bin/../lib/gcc/msp430/4.7.0/mcpu-430x/mmpy-16/msr20/mc20/crt0ivtbl32.o
 .debug_abbrev  0x00000014       0x14 /usr/local/msp430/bin/../lib/gcc/msp430/4.7.0/mcpu-430x/mmpy-16/msr20/mc20/libgcc.a(_mulsi3.o)
 .debug_abbrev  0x00000028       0x14 /usr/local/msp430/bin/../lib/gcc/msp430/4.7.0/mcpu-430x/mmpy-16/msr20/mc20/libgcc.a(_udivmod16.o)
 .debug_abbrev  0x0000003c       0x14 /usr/local/msp430/bin/../lib/gcc/msp430/4.7.0/mcpu-430x/mmpy-16/msr20/mc20/libgcc.a(_divmod16.o)
 .debug_abbrev  0x00000050       0x14 /usr/local/msp430/bin/../lib/gcc/msp430/4.7.0/mcpu-430x/mmpy-16/msr20/mc20/libgcc.a(_udivmod32.o)
 .debug_abbrev  0x00000064       0x14 /usr/local/msp430/bin/../lib/gcc/msp430/4.7.0/mcpu-430x/mmpy-16/msr20/mc20/libgcc.a(_divmod32.o)
 .debug_abbrev  0x00000078       0xfa /usr/local/msp430/bin/../lib/gcc/msp430/4.7.0/../../../../msp430/lib/mcpu-430x/mmpy-16/msr20/mc20/libc.a(printf.o)
 .debug_abbrev  0x00000172      0x14c /usr/local/msp430/bin/../lib/gcc/msp430/4.7.0/../../../../msp430/lib/mcpu-430x/mmpy-16/msr20/mc20/libc.a(sprintf.o)
 .debug_abbrev  0x000002be      0x23e /usr/local/msp430/bin/../lib/gcc/msp430/4.7.0/../../../../msp430/lib/mcpu-430x/mmpy-16/msr20/mc20/libc.a(vuprintf.o)
 .debug_abbrev  0x000004fc       0xa3 /usr/local/msp430/bin/../lib/gcc/msp430/4.7.0/../../../../msp430/lib/mcpu-430x/mmpy-16/msr20/mc20/libc.a(puts.o)
 .debug_abbrev  0x0000059f       0xfb /usr/local/msp430/bin/../lib/gcc/msp430/4.7.0/../../../../msp430/lib/mcpu-430x/mmpy-16/msr20/mc20/libc.a(rand.o)
 .debug_abbrev  0x0000069a       0x74 /usr/local/msp430/bin/../lib/gcc/msp430/4.7.0/../../../../msp430/lib/mcpu-430x/mmpy-16/msr20/mc20/libc.a(strchr.o)
 .debug_abbrev  0x0000070e       0xa7 /usr/local/msp430/bin/../lib/gcc/msp430/4.7.0/../../../../msp430/lib/mcpu-430x/mmpy-16/msr20/mc20/libc.a(memchr.o)
 .debug_abbrev  0x000007b5       0x72 /usr/local/msp430/bin/../lib/gcc/msp430/4.7.0/../../../../msp430/lib/mcpu-430x/mmpy-16/msr20/mc20/libc.a(strncmp.o)
 .debug_abbrev  0x00000827       0x9e /usr/local/msp430/bin/../lib/gcc/msp430/4.7.0/../../../../msp430/lib/mcpu-430x/mmpy-16/msr20/mc20/libc.a(memcmp.o)
 .debug_abbrev  0x000008c5       0xab /usr/local/msp430/bin/../lib/gcc/msp430/4.7.0/../../../../msp430/lib/mcpu-430x/mmpy-16/msr20/mc20/libc.a(memcpy.o)
 .debug_abbrev  0x00000970       0xab /usr/local/msp430/bin/../lib/gcc/msp430/4.7.0/../../../../msp430/lib/mcpu-430x/mmpy-16/msr20/mc20/libc.a(memmove.o)
 .debug_abbrev  0x00000a1b       0xa1 /usr/local/msp430/bin/../lib/gcc/msp430/4.7.0/../../../../msp430/lib/mcpu-430x/mmpy-16/msr20/mc20/libc.a(memset.o)
 .debug_abbrev  0x00000abc       0x14 /usr/local/msp430/bin/../lib/gcc/msp430/4.7.0/mcpu-430x/mmpy-16/msr20/mc20/libgcc.a(_udivmod64.o)
 .debug_abbrev  0x00000ad0       0x14 /usr/local/msp430/bin/../lib/gcc/msp430/4.7.0/mcpu-430x/mmpy-16/msr20/mc20/libcrt0.a(__watchdog_support.o)
 .debug_abbrev  0x00000ae4       0x14 /usr/local/msp430/bin/../lib/gcc/msp430/4.7.0/mcpu-430x/mmpy-16/msr20/mc20/libcrt0.a(__init_stack.o)
 .debug_abbrev  0x00000af8       0x14 /usr/local/msp430/bin/../lib/gcc/msp430/4.7.0/mcpu-430x/mmpy-16/msr20/mc20/libcrt0.a(_copy_data.o)
 .debug_abbrev  0x00000b0c       0x14 /usr/local/msp430/bin/../lib/gcc/msp430/4.7.0/mcpu-430x/mmpy-16/msr20/mc20/libcrt0.a(_clear_bss.o)
 .debug_abbrev  0x00000b20       0x14 /usr/local/msp430/bin/../lib/gcc/msp430/4.7.0/mcpu-430x/mmpy-16/msr20/mc20/libcrt0.a(_endless_loop__.o)
 .debug_abbrev  0x00000b34       0x14 /usr/local/msp430/bin/../lib/gcc/msp430/4.7.0/mcpu-430x/mmpy-16/msr20/mc20/libcrt0.a(_unexpected_.o)

.debug_line     0x00000000     0x1163
 *(.debug_line)
 .debug_line    0x00000000       0x6f /usr/local/msp430/bin/../lib/gcc/msp430/4.7.0/mcpu-430x/mmpy-16/msr20/mc20/crt0ivtbl32.o
 .debug_line    0x0000006f       0x7f /usr/local/msp430/bin/../lib/gcc/msp430/4.7.0/mcpu-430x/mmpy-16/msr20/mc20/libgcc.a(_mulsi3.o)
 .debug_line    0x000000ee       0x7b /usr/local/msp430/bin/../lib/gcc/msp430/4.7.0/mcpu-430x/mmpy-16/msr20/mc20/libgcc.a(_udivmod16.o)
 .debug_line    0x00000169       0x86 /usr/local/msp430/bin/../lib/gcc/msp430/4.7.0/mcpu-430x/mmpy-16/msr20/mc20/libgcc.a(_divmod16.o)
 .debug_line    0x000001ef       0x86 /usr/local/msp430/bin/../lib/gcc/msp430/4.7.0/mcpu-430x/mmpy-16/msr20/mc20/libgcc.a(_udivmod32.o)
 .debug_line    0x00000275       0x8f /usr/local/msp430/bin/../lib/gcc/msp430/4.7.0/mcpu-430x/mmpy-16/msr20/mc20/libgcc.a(_divmod32.o)
 .debug_line    0x00000304       0xad /usr/local/msp430/bin/../lib/gcc/msp430/4.7.0/../../../../msp430/lib/mcpu-430x/mmpy-16/msr20/mc20/libc.a(printf.o)
 .debug_line    0x000003b1      0x113 /usr/local/msp430/bin/../lib/gcc/msp430/4.7.0/../../../../msp430/lib/mcpu-430x/mmpy-16/msr20/mc20/libc.a(sprintf.o)
 .debug_line    0x000004c4      0x35c /usr/local/msp430/bin/../lib/gcc/msp430/4.7.0/../../../../msp430/lib/mcpu-430x/mmpy-16/msr20/mc20/libc.a(vuprintf.o)
 .debug_line    0x00000820       0x67 /usr/local/msp430/bin/../lib/gcc/msp430/4.7.0/../../../../msp430/lib/mcpu-430x/mmpy-16/msr20/mc20/libc.a(puts.o)
 .debug_line    0x00000887       0x6e /usr/local/msp430/bin/../lib/gcc/msp430/4.7.0/../../../../msp430/lib/mcpu-430x/mmpy-16/msr20/mc20/libc.a(rand.o)
 .debug_line    0x000008f5       0x46 /usr/local/msp430/bin/../lib/gcc/msp430/4.7.0/../../../../msp430/lib/mcpu-430x/mmpy-16/msr20/mc20/libc.a(strchr.o)
 .debug_line    0x0000093b       0x8a /usr/local/msp430/bin/../lib/gcc/msp430/4.7.0/../../../../msp430/lib/mcpu-430x/mmpy-16/msr20/mc20/libc.a(memchr.o)
 .debug_line    0x000009c5       0x91 /usr/local/msp430/bin/../lib/gcc/msp430/4.7.0/../../../../msp430/lib/mcpu-430x/mmpy-16/msr20/mc20/libc.a(strncmp.o)
 .debug_line    0x00000a56       0x91 /usr/local/msp430/bin/../lib/gcc/msp430/4.7.0/../../../../msp430/lib/mcpu-430x/mmpy-16/msr20/mc20/libc.a(memcmp.o)
 .debug_line    0x00000ae7      0x11a /usr/local/msp430/bin/../lib/gcc/msp430/4.7.0/../../../../msp430/lib/mcpu-430x/mmpy-16/msr20/mc20/libc.a(memcpy.o)
 .debug_line    0x00000c01      0x119 /usr/local/msp430/bin/../lib/gcc/msp430/4.7.0/../../../../msp430/lib/mcpu-430x/mmpy-16/msr20/mc20/libc.a(memmove.o)
 .debug_line    0x00000d1a       0xf4 /usr/local/msp430/bin/../lib/gcc/msp430/4.7.0/../../../../msp430/lib/mcpu-430x/mmpy-16/msr20/mc20/libc.a(memset.o)
 .debug_line    0x00000e0e       0xc4 /usr/local/msp430/bin/../lib/gcc/msp430/4.7.0/mcpu-430x/mmpy-16/msr20/mc20/libgcc.a(_udivmod64.o)
 .debug_line    0x00000ed2       0x6d /usr/local/msp430/bin/../lib/gcc/msp430/4.7.0/mcpu-430x/mmpy-16/msr20/mc20/libcrt0.a(__watchdog_support.o)
 .debug_line    0x00000f3f       0x6b /usr/local/msp430/bin/../lib/gcc/msp430/4.7.0/mcpu-430x/mmpy-16/msr20/mc20/libcrt0.a(__init_stack.o)
 .debug_line    0x00000faa       0x71 /usr/local/msp430/bin/../lib/gcc/msp430/4.7.0/mcpu-430x/mmpy-16/msr20/mc20/libcrt0.a(_copy_data.o)
 .debug_line    0x0000101b       0x71 /usr/local/msp430/bin/../lib/gcc/msp430/4.7.0/mcpu-430x/mmpy-16/msr20/mc20/libcrt0.a(_clear_bss.o)
 .debug_line    0x0000108c       0x6c /usr/local/msp430/bin/../lib/gcc/msp430/4.7.0/mcpu-430x/mmpy-16/msr20/mc20/libcrt0.a(_endless_loop__.o)
 .debug_line    0x000010f8       0x6b /usr/local/msp430/bin/../lib/gcc/msp430/4.7.0/mcpu-430x/mmpy-16/msr20/mc20/libcrt0.a(_unexpected_.o)

.debug_frame    0x00000000      0x2ec
 *(.debug_frame)
 .debug_frame   0x00000000       0x34 /usr/local/msp430/bin/../lib/gcc/msp430/4.7.0/../../../../msp430/lib/mcpu-430x/mmpy-16/msr20/mc20/libc.a(printf.o)
 .debug_frame   0x00000034       0x80 /usr/local/msp430/bin/../lib/gcc/msp430/4.7.0/../../../../msp430/lib/mcpu-430x/mmpy-16/msr20/mc20/libc.a(sprintf.o)
 .debug_frame   0x000000b4       0x88 /usr/local/msp430/bin/../lib/gcc/msp430/4.7.0/../../../../msp430/lib/mcpu-430x/mmpy-16/msr20/mc20/libc.a(vuprintf.o)
 .debug_frame   0x0000013c       0x2c /usr/local/msp430/bin/../lib/gcc/msp430/4.7.0/../../../../msp430/lib/mcpu-430x/mmpy-16/msr20/mc20/libc.a(puts.o)
 .debug_frame   0x00000168       0x4c /usr/local/msp430/bin/../lib/gcc/msp430/4.7.0/../../../../msp430/lib/mcpu-430x/mmpy-16/msr20/mc20/libc.a(rand.o)
 .debug_frame   0x000001b4       0x24 /usr/local/msp430/bin/../lib/gcc/msp430/4.7.0/../../../../msp430/lib/mcpu-430x/mmpy-16/msr20/mc20/libc.a(strchr.o)
 .debug_frame   0x000001d8       0x2c /usr/local/msp430/bin/../lib/gcc/msp430/4.7.0/../../../../msp430/lib/mcpu-430x/mmpy-16/msr20/mc20/libc.a(memchr.o)
 .debug_frame   0x00000204       0x2c /usr/local/msp430/bin/../lib/gcc/msp430/4.7.0/../../../../msp430/lib/mcpu-430x/mmpy-16/msr20/mc20/libc.a(strncmp.o)
 .debug_frame   0x00000230       0x2c /usr/local/msp430/bin/../lib/gcc/msp430/4.7.0/../../../../msp430/lib/mcpu-430x/mmpy-16/msr20/mc20/libc.a(memcmp.o)
 .debug_frame   0x0000025c       0x30 /usr/local/msp430/bin/../lib/gcc/msp430/4.7.0/../../../../msp430/lib/mcpu-430x/mmpy-16/msr20/mc20/libc.a(memcpy.o)
 .debug_frame   0x0000028c       0x30 /usr/local/msp430/bin/../lib/gcc/msp430/4.7.0/../../../../msp430/lib/mcpu-430x/mmpy-16/msr20/mc20/libc.a(memmove.o)
 .debug_frame   0x000002bc       0x30 /usr/local/msp430/bin/../lib/gcc/msp430/4.7.0/../../../../msp430/lib/mcpu-430x/mmpy-16/msr20/mc20/libc.a(memset.o)

.debug_str      0x00000000      0x4c7
 *(.debug_str)
 .debug_str     0x00000000       0xf6 /usr/local/msp430/bin/../lib/gcc/msp430/4.7.0/../../../../msp430/lib/mcpu-430x/mmpy-16/msr20/mc20/libc.a(printf.o)
                                0x147 (size before relaxing)
 .debug_str     0x000000f6       0x75 /usr/local/msp430/bin/../lib/gcc/msp430/4.7.0/../../../../msp430/lib/mcpu-430x/mmpy-16/msr20/mc20/libc.a(sprintf.o)
                                0x1ac (size before relaxing)
 .debug_str     0x0000016b      0x22b /usr/local/msp430/bin/../lib/gcc/msp430/4.7.0/../../../../msp430/lib/mcpu-430x/mmpy-16/msr20/mc20/libc.a(vuprintf.o)
                                0x3ad (size before relaxing)
 .debug_str     0x00000396       0x1d /usr/local/msp430/bin/../lib/gcc/msp430/4.7.0/../../../../msp430/lib/mcpu-430x/mmpy-16/msr20/mc20/libc.a(puts.o)
                                0x10c (size before relaxing)
 .debug_str     0x000003b3       0x2f /usr/local/msp430/bin/../lib/gcc/msp430/4.7.0/../../../../msp430/lib/mcpu-430x/mmpy-16/msr20/mc20/libc.a(rand.o)
                                0x123 (size before relaxing)
 .debug_str     0x000003e2       0x19 /usr/local/msp430/bin/../lib/gcc/msp430/4.7.0/../../../../msp430/lib/mcpu-430x/mmpy-16/msr20/mc20/libc.a(strchr.o)
                                0x108 (size before relaxing)
 .debug_str     0x000003fb       0x19 /usr/local/msp430/bin/../lib/gcc/msp430/4.7.0/../../../../msp430/lib/mcpu-430x/mmpy-16/msr20/mc20/libc.a(memchr.o)
                                0x10f (size before relaxing)
 .debug_str     0x00000414       0x1b /usr/local/msp430/bin/../lib/gcc/msp430/4.7.0/../../../../msp430/lib/mcpu-430x/mmpy-16/msr20/mc20/libc.a(strncmp.o)
                                0x111 (size before relaxing)
 .debug_str     0x0000042f       0x19 /usr/local/msp430/bin/../lib/gcc/msp430/4.7.0/../../../../msp430/lib/mcpu-430x/mmpy-16/msr20/mc20/libc.a(memcmp.o)
                                0x10f (size before relaxing)
 .debug_str     0x00000448       0x3e /usr/local/msp430/bin/../lib/gcc/msp430/4.7.0/../../../../msp430/lib/mcpu-430x/mmpy-16/msr20/mc20/libc.a(memcpy.o)
                                0x13d (size before relaxing)
 .debug_str     0x00000486       0x1b /usr/local/msp430/bin/../lib/gcc/msp430/4.7.0/../../../../msp430/lib/mcpu-430x/mmpy-16/msr20/mc20/libc.a(memmove.o)
                                0x13f (size before relaxing)
 .debug_str     0x000004a1       0x26 /usr/local/msp430/bin/../lib/gcc/msp430/4.7.0/../../../../msp430/lib/mcpu-430x/mmpy-16/msr20/mc20/libc.a(memset.o)
                                0x13b (size before relaxing)

.debug_loc      0x00000000     0x1763
 *(.debug_loc)
 .debug_loc     0x00000000       0x78 /usr/local/msp430/bin/../lib/gcc/msp430/4.7.0/../../../../msp430/lib/mcpu-430x/mmpy-16/msr20/mc20/libc.a(printf.o)
 .debug_loc     0x00000078      0x1d5 /usr/local/msp430/bin/../lib/gcc/msp430/4.7.0/../../../../msp430/lib/mcpu-430x/mmpy-16/msr20/mc20/libc.a(sprintf.o)
 .debug_loc     0x0000024d      0xc0e /usr/local/msp430/bin/../lib/gcc/msp430/4.7.0/../../../../msp430/lib/mcpu-430x/mmpy-16/msr20/mc20/libc.a(vuprintf.o)
 .debug_loc     0x00000e5b       0x3e /usr/local/msp430/bin/../lib/gcc/msp430/4.7.0/../../../../msp430/lib/mcpu-430x/mmpy-16/msr20/mc20/libc.a(puts.o)
 .debug_loc     0x00000e99       0x78 /usr/local/msp430/bin/../lib/gcc/msp430/4.7.0/../../../../msp430/lib/mcpu-430x/mmpy-16/msr20/mc20/libc.a(rand.o)
 .debug_loc     0x00000f11       0x3a /usr/local/msp430/bin/../lib/gcc/msp430/4.7.0/../../../../msp430/lib/mcpu-430x/mmpy-16/msr20/mc20/libc.a(strchr.o)
 .debug_loc     0x00000f4b       0x72 /usr/local/msp430/bin/../lib/gcc/msp430/4.7.0/../../../../msp430/lib/mcpu-430x/mmpy-16/msr20/mc20/libc.a(memchr.o)
 .debug_loc     0x00000fbd       0x7a /usr/local/msp430/bin/../lib/gcc/msp430/4.7.0/../../../../msp430/lib/mcpu-430x/mmpy-16/msr20/mc20/libc.a(strncmp.o)
 .debug_loc     0x00001037       0x6d /usr/local/msp430/bin/../lib/gcc/msp430/4.7.0/../../../../msp430/lib/mcpu-430x/mmpy-16/msr20/mc20/libc.a(memcmp.o)
 .debug_loc     0x000010a4      0x2c3 /usr/local/msp430/bin/../lib/gcc/msp430/4.7.0/../../../../msp430/lib/mcpu-430x/mmpy-16/msr20/mc20/libc.a(memcpy.o)
 .debug_loc     0x00001367      0x2c3 /usr/local/msp430/bin/../lib/gcc/msp430/4.7.0/../../../../msp430/lib/mcpu-430x/mmpy-16/msr20/mc20/libc.a(memmove.o)
 .debug_loc     0x0000162a      0x139 /usr/local/msp430/bin/../lib/gcc/msp430/4.7.0/../../../../msp430/lib/mcpu-430x/mmpy-16/msr20/mc20/libc.a(memset.o)

.debug_macinfo
 *(.debug_macinfo)

.debug_pubtypes
 *(.debug_pubtypes)

.debug_ranges   0x00000000      0x138
 *(.debug_ranges)
 .debug_ranges  0x00000000       0x18 /usr/local/msp430/bin/../lib/gcc/msp430/4.7.0/../../../../msp430/lib/mcpu-430x/mmpy-16/msr20/mc20/libc.a(printf.o)
 .debug_ranges  0x00000018       0x38 /usr/local/msp430/bin/../lib/gcc/msp430/4.7.0/../../../../msp430/lib/mcpu-430x/mmpy-16/msr20/mc20/libc.a(sprintf.o)
 .debug_ranges  0x00000050       0x48 /usr/local/msp430/bin/../lib/gcc/msp430/4.7.0/../../../../msp430/lib/mcpu-430x/mmpy-16/msr20/mc20/libc.a(vuprintf.o)
 .debug_ranges  0x00000098       0x10 /usr/local/msp430/bin/../lib/gcc/msp430/4.7.0/../../../../msp430/lib/mcpu-430x/mmpy-16/msr20/mc20/libc.a(puts.o)
 .debug_ranges  0x000000a8       0x20 /usr/local/msp430/bin/../lib/gcc/msp430/4.7.0/../../../../msp430/lib/mcpu-430x/mmpy-16/msr20/mc20/libc.a(rand.o)
 .debug_ranges  0x000000c8       0x10 /usr/local/msp430/bin/../lib/gcc/msp430/4.7.0/../../../../msp430/lib/mcpu-430x/mmpy-16/msr20/mc20/libc.a(strchr.o)
 .debug_ranges  0x000000d8       0x10 /usr/local/msp430/bin/../lib/gcc/msp430/4.7.0/../../../../msp430/lib/mcpu-430x/mmpy-16/msr20/mc20/libc.a(memchr.o)
 .debug_ranges  0x000000e8       0x10 /usr/local/msp430/bin/../lib/gcc/msp430/4.7.0/../../../../msp430/lib/mcpu-430x/mmpy-16/msr20/mc20/libc.a(strncmp.o)
 .debug_ranges  0x000000f8       0x10 /usr/local/msp430/bin/../lib/gcc/msp430/4.7.0/../../../../msp430/lib/mcpu-430x/mmpy-16/msr20/mc20/libc.a(memcmp.o)
 .debug_ranges  0x00000108       0x10 /usr/local/msp430/bin/../lib/gcc/msp430/4.7.0/../../../../msp430/lib/mcpu-430x/mmpy-16/msr20/mc20/libc.a(memcpy.o)
 .debug_ranges  0x00000118       0x10 /usr/local/msp430/bin/../lib/gcc/msp430/4.7.0/../../../../msp430/lib/mcpu-430x/mmpy-16/msr20/mc20/libc.a(memmove.o)
 .debug_ranges  0x00000128       0x10 /usr/local/msp430/bin/../lib/gcc/msp430/4.7.0/../../../../msp430/lib/mcpu-430x/mmpy-16/msr20/mc20/libc.a(memset.o)
                0x00003100                PROVIDE (__stack, (ORIGIN (ram) + 0x2000))
                0x0000ee64                __data_start_rom = _etext
                0x0000efea                __data_end_rom = (_etext + SIZEOF (.data))
OUTPUT(coap-server.z1 elf32-msp430)

.gnu.attributes
                0x00000000       0x11
 .gnu.attributes
                0x00000000       0x11 /usr/local/msp430/bin/../lib/gcc/msp430/4.7.0/mcpu-430x/mmpy-16/msr20/mc20/crt0ivtbl32.o
 .gnu.attributes
                0x00000011       0x11 coap-server.co
 .gnu.attributes
                0x00000022       0x11 obj_z1/contiki-z1-main.o
 .gnu.attributes
                0x00000033       0x11 contiki-z1.a(er-coap-engine.)
 .gnu.attributes
                0x00000044       0x11 contiki-z1.a(er-coap-transac)
 .gnu.attributes
                0x00000055       0x11 contiki-z1.a(er-coap-observe)
 .gnu.attributes
                0x00000066       0x11 contiki-z1.a(er-coap-res-wel)
 .gnu.attributes
                0x00000077       0x11 contiki-z1.a(rest-engine.o)
 .gnu.attributes
                0x00000088       0x11 contiki-z1.a(contiki-z1-plat)
 .gnu.attributes
                0x00000099       0x11 contiki-z1.a(msp430.o)
 .gnu.attributes
                0x000000aa       0x11 contiki-z1.a(leds.o)
 .gnu.attributes
                0x000000bb       0x11 contiki-z1.a(watchdog.o)
 .gnu.attributes
                0x000000cc       0x11 contiki-z1.a(xmem.o)
 .gnu.attributes
                0x000000dd       0x11 contiki-z1.a(spi.o)
 .gnu.attributes
                0x000000ee       0x11 contiki-z1.a(cc2420.o)
 .gnu.attributes
                0x000000ff       0x11 contiki-z1.a(cc2420-arch.o)
 .gnu.attributes
                0x00000110       0x11 contiki-z1.a(node-id.o)
 .gnu.attributes
                0x00000121       0x11 contiki-z1.a(sensors.o)
 .gnu.attributes
                0x00000132       0x11 contiki-z1.a(button-sensor.o)
 .gnu.attributes
                0x00000143       0x11 contiki-z1.a(uart0.o)
 .gnu.attributes
                0x00000154       0x11 contiki-z1.a(uart0-putchar.o)
 .gnu.attributes
                0x00000165       0x11 contiki-z1.a(adxl345.o)
 .gnu.attributes
                0x00000176       0x11 contiki-z1.a(clock.o)
 .gnu.attributes
                0x00000187       0x11 contiki-z1.a(leds-arch.o)
 .gnu.attributes
                0x00000198       0x11 contiki-z1.a(rtimer-arch.o)
 .gnu.attributes
                0x000001a9       0x11 contiki-z1.a(autostart.o)
 .gnu.attributes
                0x000001ba       0x11 contiki-z1.a(ctimer.o)
 .gnu.attributes
                0x000001cb       0x11 contiki-z1.a(energest.o)
 .gnu.attributes
                0x000001dc       0x11 contiki-z1.a(etimer.o)
 .gnu.attributes
                0x000001ed       0x11 contiki-z1.a(process.o)
 .gnu.attributes
                0x000001fe       0x11 contiki-z1.a(rtimer.o)
 .gnu.attributes
                0x0000020f       0x11 contiki-z1.a(timer.o)
 .gnu.attributes
                0x00000220       0x11 contiki-z1.a(list.o)
 .gnu.attributes
                0x00000231       0x11 contiki-z1.a(memb.o)
 .gnu.attributes
                0x00000242       0x11 contiki-z1.a(random.o)
 .gnu.attributes
                0x00000253       0x11 contiki-z1.a(sicslowpan.o)
 .gnu.attributes
                0x00000264       0x11 contiki-z1.a(uip6.o)
 .gnu.attributes
                0x00000275       0x11 contiki-z1.a(uip-ds6.o)
 .gnu.attributes
                0x00000286       0x11 contiki-z1.a(uip-ds6-nbr.o)
 .gnu.attributes
                0x00000297       0x11 contiki-z1.a(uip-ds6-route.o)
 .gnu.attributes
                0x000002a8       0x11 contiki-z1.a(uip-icmp6.o)
 .gnu.attributes
                0x000002b9       0x11 contiki-z1.a(uip-nd6.o)
 .gnu.attributes
                0x000002ca       0x11 contiki-z1.a(tcpip.o)
 .gnu.attributes
                0x000002db       0x11 contiki-z1.a(uip-debug.o)
 .gnu.attributes
                0x000002ec       0x11 contiki-z1.a(rpl.o)
 .gnu.attributes
                0x000002fd       0x11 contiki-z1.a(rpl-dag.o)
 .gnu.attributes
                0x0000030e       0x11 contiki-z1.a(rpl-ext-header.)
 .gnu.attributes
                0x0000031f       0x11 contiki-z1.a(rpl-icmp6.o)
 .gnu.attributes
                0x00000330       0x11 contiki-z1.a(rpl-mrhof.o)
 .gnu.attributes
                0x00000341       0x11 contiki-z1.a(rpl-timers.o)
 .gnu.attributes
                0x00000352       0x11 contiki-z1.a(linkaddr.o)
 .gnu.attributes
                0x00000363       0x11 contiki-z1.a(nbr-table.o)
 .gnu.attributes
                0x00000374       0x11 contiki-z1.a(packetbuf.o)
 .gnu.attributes
                0x00000385       0x11 contiki-z1.a(queuebuf.o)
 .gnu.attributes
                0x00000396       0x11 contiki-z1.a(framer-802154.o)
 .gnu.attributes
                0x000003a7       0x11 contiki-z1.a(framer.o)
 .gnu.attributes
                0x000003b8       0x11 contiki-z1.a(nullmac.o)
 .gnu.attributes
                0x000003c9       0x11 contiki-z1.a(nullrdc.o)
 .gnu.attributes
                0x000003da       0x11 contiki-z1.a(nullsec.o)
 .gnu.attributes
                0x000003eb       0x11 contiki-z1.a(er-coap.o)
 .gnu.attributes
                0x000003fc       0x11 contiki-z1.a(i2cmaster.o)
 .gnu.attributes
                0x0000040d       0x11 contiki-z1.a(stimer.o)
 .gnu.attributes
                0x0000041e       0x11 contiki-z1.a(uip-udp-packet.)
 .gnu.attributes
                0x0000042f       0x11 contiki-z1.a(frame802154.o)
 .gnu.attributes
                0x00000440       0x11 contiki-z1.a(mac.o)
 .gnu.attributes
                0x00000451       0x11 /usr/local/msp430/bin/../lib/gcc/msp430/4.7.0/mcpu-430x/mmpy-16/msr20/mc20/libgcc.a(_mulsi3.o)
 .gnu.attributes
                0x00000462       0x11 /usr/local/msp430/bin/../lib/gcc/msp430/4.7.0/mcpu-430x/mmpy-16/msr20/mc20/libgcc.a(_udivmod16.o)
 .gnu.attributes
                0x00000473       0x11 /usr/local/msp430/bin/../lib/gcc/msp430/4.7.0/mcpu-430x/mmpy-16/msr20/mc20/libgcc.a(_divmod16.o)
 .gnu.attributes
                0x00000484       0x11 /usr/local/msp430/bin/../lib/gcc/msp430/4.7.0/mcpu-430x/mmpy-16/msr20/mc20/libgcc.a(_udivmod32.o)
 .gnu.attributes
                0x00000495       0x11 /usr/local/msp430/bin/../lib/gcc/msp430/4.7.0/mcpu-430x/mmpy-16/msr20/mc20/libgcc.a(_divmod32.o)
 .gnu.attributes
                0x000004a6       0x11 /usr/local/msp430/bin/../lib/gcc/msp430/4.7.0/../../../../msp430/lib/mcpu-430x/mmpy-16/msr20/mc20/libc.a(printf.o)
 .gnu.attributes
                0x000004b7       0x11 /usr/local/msp430/bin/../lib/gcc/msp430/4.7.0/../../../../msp430/lib/mcpu-430x/mmpy-16/msr20/mc20/libc.a(sprintf.o)
 .gnu.attributes
                0x000004c8       0x11 /usr/local/msp430/bin/../lib/gcc/msp430/4.7.0/../../../../msp430/lib/mcpu-430x/mmpy-16/msr20/mc20/libc.a(vuprintf.o)
 .gnu.attributes
                0x000004d9       0x11 /usr/local/msp430/bin/../lib/gcc/msp430/4.7.0/../../../../msp430/lib/mcpu-430x/mmpy-16/msr20/mc20/libc.a(puts.o)
 .gnu.attributes
                0x000004ea       0x11 /usr/local/msp430/bin/../lib/gcc/msp430/4.7.0/../../../../msp430/lib/mcpu-430x/mmpy-16/msr20/mc20/libc.a(rand.o)
 .gnu.attributes
                0x000004fb       0x11 /usr/local/msp430/bin/../lib/gcc/msp430/4.7.0/../../../../msp430/lib/mcpu-430x/mmpy-16/msr20/mc20/libc.a(strchr.o)
 .gnu.attributes
                0x0000050c       0x11 /usr/local/msp430/bin/../lib/gcc/msp430/4.7.0/../../../../msp430/lib/mcpu-430x/mmpy-16/msr20/mc20/libc.a(memchr.o)
 .gnu.attributes
                0x0000051d       0x11 /usr/local/msp430/bin/../lib/gcc/msp430/4.7.0/../../../../msp430/lib/mcpu-430x/mmpy-16/msr20/mc20/libc.a(strncmp.o)
 .gnu.attributes
                0x0000052e       0x11 /usr/local/msp430/bin/../lib/gcc/msp430/4.7.0/../../../../msp430/lib/mcpu-430x/mmpy-16/msr20/mc20/libc.a(memcmp.o)
 .gnu.attributes
                0x0000053f       0x11 /usr/local/msp430/bin/../lib/gcc/msp430/4.7.0/../../../../msp430/lib/mcpu-430x/mmpy-16/msr20/mc20/libc.a(memcpy.o)
 .gnu.attributes
                0x00000550       0x11 /usr/local/msp430/bin/../lib/gcc/msp430/4.7.0/../../../../msp430/lib/mcpu-430x/mmpy-16/msr20/mc20/libc.a(memmove.o)
 .gnu.attributes
                0x00000561       0x11 /usr/local/msp430/bin/../lib/gcc/msp430/4.7.0/../../../../msp430/lib/mcpu-430x/mmpy-16/msr20/mc20/libc.a(memset.o)
 .gnu.attributes
                0x00000572       0x11 /usr/local/msp430/bin/../lib/gcc/msp430/4.7.0/mcpu-430x/mmpy-16/msr20/mc20/libgcc.a(_udivmod64.o)
 .gnu.attributes
                0x00000583       0x11 /usr/local/msp430/bin/../lib/gcc/msp430/4.7.0/mcpu-430x/mmpy-16/msr20/mc20/libcrt0.a(_reset_vector__.o)
 .gnu.attributes
                0x00000594       0x11 /usr/local/msp430/bin/../lib/gcc/msp430/4.7.0/mcpu-430x/mmpy-16/msr20/mc20/libcrt0.a(__watchdog_support.o)
 .gnu.attributes
                0x000005a5       0x11 /usr/local/msp430/bin/../lib/gcc/msp430/4.7.0/mcpu-430x/mmpy-16/msr20/mc20/libcrt0.a(__init_stack.o)
 .gnu.attributes
                0x000005b6       0x11 /usr/local/msp430/bin/../lib/gcc/msp430/4.7.0/mcpu-430x/mmpy-16/msr20/mc20/libcrt0.a(__low_level_init.o)
 .gnu.attributes
                0x000005c7       0x11 /usr/local/msp430/bin/../lib/gcc/msp430/4.7.0/mcpu-430x/mmpy-16/msr20/mc20/libcrt0.a(_copy_data.o)
 .gnu.attributes
                0x000005d8       0x11 /usr/local/msp430/bin/../lib/gcc/msp430/4.7.0/mcpu-430x/mmpy-16/msr20/mc20/libcrt0.a(_clear_bss.o)
 .gnu.attributes
                0x000005e9       0x11 /usr/local/msp430/bin/../lib/gcc/msp430/4.7.0/mcpu-430x/mmpy-16/msr20/mc20/libcrt0.a(__stop_progExec__.o)
 .gnu.attributes
                0x000005fa       0x11 /usr/local/msp430/bin/../lib/gcc/msp430/4.7.0/mcpu-430x/mmpy-16/msr20/mc20/libcrt0.a(_endless_loop__.o)
 .gnu.attributes
                0x0000060b       0x11 /usr/local/msp430/bin/../lib/gcc/msp430/4.7.0/mcpu-430x/mmpy-16/msr20/mc20/libcrt0.a(_unexpected_.o)
